Date: Tue, 11 Jul 2000 21:14:48 -0400
From: Pug Fantus <>
Subject: 2.4-test2/3 opps
Sender: linux-kernel-owner@vger.kernel.org
Precedence: bulk
List-ID: <linux-kernel.vger.kernel.org>
X-Mailing-List: linux-kernel@vger.kernel.org
X-Lkml-Link: https://lkml.org/lkml/2000/7/11/150

I have been getting these opps with test2 and test3 now.  I wasn't able
to capture the test2 opps, but here is the one from test3.  It happens
right when it says loading swap.  I have always rebooted when I goot the
opps, but this time, for some reason, I hit ctrl-c, and it went past the
opps, and gave me like 4 more, but the system booted fine, or so it
seems now.
Sorry this is in an attachment, it's a rather large text file, and it
looked ugly when I tried to paste it in.  If anyone needs to see it
pasted in, or needs to see my kernel config, please CC: back to me, I'll
be happy to send it.  Thanks in advance for any help.
--pug
-- 
pugfantus -- #linuxlounge EfNet               --
http://members.xoom.com/pugfantus
          -- #i-opener-linux OpenProjects.Net --
http://jailbait.sourceforge.net
"I can't understand why people are frightened of new ideas.  I'm
frightened 
of the old ones." 			-- John Cageksymoops 0.7c on i686 2.4.0-test3.  Options used
     -V (default)
     -k /proc/ksyms (default)
     -l /proc/modules (default)
     -o /lib/modules/2.4.0-test3/ (default)
     -m /usr/src/linux/System.map (default)
Warning: You did not tell me where to find symbol information.  I will
assume that the log matches the kernel and modules that are running
right now and I'll use the default options above for symbol resolution.
If the current kernel and/or modules do not match the log, you can get
more accurate output by telling me the kernel version and where to find
map, modules, ksyms etc.  ksymoops -h explains the options.
Warning (compare_maps): snd symbol pm_register not found in /lib/modules/2.4.0-test3/misc/snd.o.  Ignoring /lib/modules/2.4.0-test3/misc/snd.o entry
Warning (compare_maps): snd symbol pm_send not found in /lib/modules/2.4.0-test3/misc/snd.o.  Ignoring /lib/modules/2.4.0-test3/misc/snd.o entry
Warning (compare_maps): snd symbol pm_unregister not found in /lib/modules/2.4.0-test3/misc/snd.o.  Ignoring /lib/modules/2.4.0-test3/misc/snd.o entry
Jul 11 20:56:01 phoenix kernel:  e820: 000000000009fc00 @ 0000000000000000 (usable) 
Jul 11 20:56:01 phoenix kernel:  e820: 0000000000000400 @ 000000000009fc00 (usable) 
Jul 11 20:56:01 phoenix kernel:  e820: 0000000000010000 @ 00000000000f0000 (reserved) 
Jul 11 20:56:01 phoenix kernel:  e820: 0000000000010000 @ 00000000ffff0000 (reserved) 
Jul 11 20:56:01 phoenix kernel:  e820: 0000000007ef0000 @ 0000000000100000 (usable) 
Jul 11 20:56:01 phoenix kernel:  e820: 000000000000d000 @ 0000000007ff3000 (ACPI data) 
Jul 11 20:56:01 phoenix kernel:  e820: 0000000000003000 @ 0000000007ff0000 (ACPI NVS) 
Jul 11 20:56:07 phoenix kernel: Unable to handle kernel NULL pointer dereference at virtual address 00000008 
Jul 11 20:56:07 phoenix kernel: c014be75 
Jul 11 20:56:07 phoenix kernel: *pde = 00000000 
Jul 11 20:56:07 phoenix kernel: Oops: 0000 
Jul 11 20:56:07 phoenix kernel: CPU:    0 
Jul 11 20:56:07 phoenix kernel: EIP:    0010:[elf_core_dump+761/2740] 
Jul 11 20:56:07 phoenix kernel: EFLAGS: 00010207 
Jul 11 20:56:07 phoenix kernel: eax: c7f088a0   ebx: c12f4440   ecx: 00000000   edx: 00000000 
Jul 11 20:56:07 phoenix kernel: esi: c125e3a0   edi: 00000000   ebp: c12f4440   esp: c7a21f00 
Jul 11 20:56:07 phoenix kernel: ds: 0018   es: 0018   ss: 0018 
Jul 11 20:56:07 phoenix kernel: Process pidof (pid: 128, stackpage=c7a21000) 
Jul 11 20:56:07 phoenix kernel: Stack: c7929ac0 c7a21fa4 c7929ac0 c7e1d00b 00000000 00000000 00000000 c014c473  
Jul 11 20:56:07 phoenix kernel:        c7929ac0 00000001 c7a21fa4 c7a0c1a0 c7a0c1a0 c013d32c c7a0c1a0 c7a21fa4  
Jul 11 20:56:07 phoenix kernel:        c7929ac0 00000000 c7e1d000 c7a21fa4 bffffa7c c7a20000 c7a21fa8 c7a20000  
Jul 11 20:56:07 phoenix kernel: Call Trace: [elf_core_dump+2295/2740] [pipe_read+648/700] [pipe_poll+48/108] [sys_pivot_root+194/1004] [setup_frame+64/420]  
Jul 11 20:56:07 phoenix kernel: Code: 8b 42 08 39 c2 0f 84 87 00 00 00 8b 0a 89 44 24 18 89 c2 39  
Using defaults from ksymoops -t elf32-i386 -a i386
Code;  00000000 Before first symbol
00000000 <_EIP>:
Code;  00000000 Before first symbol
   0:   8b 42 08                  mov    0x8(%edx),%eax
Code;  00000003 Before first symbol
   3:   39 c2                     cmp    %eax,%edx
Code;  00000005 Before first symbol
   5:   0f 84 87 00 00 00         je     92 <_EIP+0x92> 00000092 Before first symbol
Code;  0000000b Before first symbol
   b:   8b 0a                     mov    (%edx),%ecx
Code;  0000000d Before first symbol
   d:   89 44 24 18               mov    %eax,0x18(%esp,1)
Code;  00000011 Before first symbol
  11:   89 c2                     mov    %eax,%edx
Code;  00000013 Before first symbol
  13:   39 00                     cmp    %eax,(%eax)
Jul 11 20:56:07 phoenix kernel: Unable to handle kernel NULL pointer dereference at virtual address 00000008 
Jul 11 20:56:07 phoenix kernel: *pde = 00000000 
Jul 11 20:56:07 phoenix kernel: Oops: 0000 
Jul 11 20:56:07 phoenix kernel: CPU:    0 
Jul 11 20:56:07 phoenix kernel: EIP:    0010:[elf_core_dump+761/2740] 
Jul 11 20:56:07 phoenix kernel: EFLAGS: 00010207 
Jul 11 20:56:07 phoenix kernel: eax: c7f08a20   ebx: c12f4440   ecx: 00000000   edx: 00000000 
Jul 11 20:56:07 phoenix kernel: esi: c125e3a0   edi: 00000000   ebp: c12f4440   esp: c7a27f00 
Jul 11 20:56:07 phoenix kernel: ds: 0018   es: 0018   ss: 0018 
Jul 11 20:56:07 phoenix kernel: Process pidof (pid: 281, stackpage=c7a27000) 
Jul 11 20:56:07 phoenix kernel: Stack: c7929ac0 c7a27fa4 c7929ac0 c7da900b 00000000 00000000 00000000 c014c473  
Jul 11 20:56:07 phoenix kernel:        c7929ac0 00000001 c7a27fa4 c7a0c1a0 c7a0c1a0 c013d32c c7a0c1a0 c7a27fa4  
Jul 11 20:56:07 phoenix kernel:        c7929ac0 00000000 c7da9000 c7a27fa4 bffffa3c c7a26000 c7a27fa8 c7a26000  
Jul 11 20:56:07 phoenix kernel: Call Trace: [elf_core_dump+2295/2740] [pipe_read+648/700] [pipe_poll+48/108] [sys_pivot_root+194/1004] [setup_frame+64/420]  
Jul 11 20:56:07 phoenix kernel: Code: 8b 42 08 39 c2 0f 84 87 00 00 00 8b 0a 89 44 24 18 89 c2 39  
Code;  00000000 Before first symbol
00000000 <_EIP>:
Code;  00000000 Before first symbol
   0:   8b 42 08                  mov    0x8(%edx),%eax
Code;  00000003 Before first symbol
   3:   39 c2                     cmp    %eax,%edx
Code;  00000005 Before first symbol
   5:   0f 84 87 00 00 00         je     92 <_EIP+0x92> 00000092 Before first symbol
Code;  0000000b Before first symbol
   b:   8b 0a                     mov    (%edx),%ecx
Code;  0000000d Before first symbol
   d:   89 44 24 18               mov    %eax,0x18(%esp,1)
Code;  00000011 Before first symbol
  11:   89 c2                     mov    %eax,%edx
Code;  00000013 Before first symbol
  13:   39 00                     cmp    %eax,(%eax)
Jul 11 20:56:07 phoenix kernel: Unable to handle kernel NULL pointer dereference at virtual address 00000008 
Jul 11 20:56:07 phoenix kernel: *pde = 00000000 
Jul 11 20:56:07 phoenix kernel: Oops: 0000 
Jul 11 20:56:07 phoenix kernel: CPU:    0 
Jul 11 20:56:07 phoenix kernel: EIP:    0010:[elf_core_dump+761/2740] 
Jul 11 20:56:07 phoenix kernel: EFLAGS: 00010207 
Jul 11 20:56:07 phoenix kernel: eax: c7f17820   ebx: c12f4440   ecx: 00000000   edx: 00000000 
Jul 11 20:56:07 phoenix kernel: esi: c125e3a0   edi: 00000000   ebp: c12f4440   esp: c792df00 
Jul 11 20:56:07 phoenix kernel: ds: 0018   es: 0018   ss: 0018 
Jul 11 20:56:07 phoenix kernel: Process pidof (pid: 294, stackpage=c792d000) 
Jul 11 20:56:07 phoenix kernel: Stack: c7929ac0 c792dfa4 c7929ac0 c7cb800b 00000000 00000000 00000000 c014c473  
Jul 11 20:56:07 phoenix kernel:        c7929ac0 00000001 c792dfa4 c7a0c1a0 c7a0c1a0 c013d32c c7a0c1a0 c792dfa4  
Jul 11 20:56:07 phoenix kernel:        c7929ac0 00000000 c7cb8000 c792dfa4 bffffa3c c792c000 c792dfa8 c792c000  
Jul 11 20:56:07 phoenix kernel: Call Trace: [elf_core_dump+2295/2740] [pipe_read+648/700] [pipe_poll+48/108] [sys_pivot_root+194/1004] [setup_frame+64/420]  
Jul 11 20:56:07 phoenix kernel: Code: 8b 42 08 39 c2 0f 84 87 00 00 00 8b 0a 89 44 24 18 89 c2 39  
Code;  00000000 Before first symbol
00000000 <_EIP>:
Code;  00000000 Before first symbol
   0:   8b 42 08                  mov    0x8(%edx),%eax
Code;  00000003 Before first symbol
   3:   39 c2                     cmp    %eax,%edx
Code;  00000005 Before first symbol
   5:   0f 84 87 00 00 00         je     92 <_EIP+0x92> 00000092 Before first symbol
Code;  0000000b Before first symbol
   b:   8b 0a                     mov    (%edx),%ecx
Code;  0000000d Before first symbol
   d:   89 44 24 18               mov    %eax,0x18(%esp,1)
Code;  00000011 Before first symbol
  11:   89 c2                     mov    %eax,%edx
Code;  00000013 Before first symbol
  13:   39 00                     cmp    %eax,(%eax)
Jul 11 20:56:07 phoenix kernel: Unable to handle kernel NULL pointer dereference at virtual address 00000008 
Jul 11 20:56:07 phoenix kernel: *pde = 00000000 
Jul 11 20:56:07 phoenix kernel: Oops: 0000 
Jul 11 20:56:07 phoenix kernel: CPU:    0 
Jul 11 20:56:07 phoenix kernel: EIP:    0010:[elf_core_dump+761/2740] 
Jul 11 20:56:07 phoenix kernel: EFLAGS: 00010207 
Jul 11 20:56:07 phoenix kernel: eax: c7f177a0   ebx: c12f4440   ecx: 00000000   edx: 00000000 
Jul 11 20:56:07 phoenix kernel: esi: c125e3a0   edi: 00000000   ebp: c12f4440   esp: c78e5f00 
Jul 11 20:56:07 phoenix kernel: ds: 0018   es: 0018   ss: 0018 
Jul 11 20:56:07 phoenix kernel: Process pidof (pid: 372, stackpage=c78e5000) 
Jul 11 20:56:07 phoenix kernel: Stack: c7929ac0 c78e5fa4 c7929ac0 c132700b 00000000 00000000 00000000 c014c473  
Jul 11 20:56:07 phoenix kernel:        c7929ac0 00000001 c78e5fa4 c7a0c1a0 c7a0c1a0 c013d32c c7a0c1a0 c78e5fa4  
Jul 11 20:56:07 phoenix kernel:        c7929ac0 00000000 c1327000 c78e5fa4 bffffa3c c78e4000 c78e5fa8 c78e4000  
Jul 11 20:56:07 phoenix kernel: Call Trace: [elf_core_dump+2295/2740] [pipe_read+648/700] [pipe_poll+48/108] [sys_pivot_root+194/1004] [setup_frame+64/420]  
Jul 11 20:56:07 phoenix kernel: Code: 8b 42 08 39 c2 0f 84 87 00 00 00 8b 0a 89 44 24 18 89 c2 39  
Code;  00000000 Before first symbol
00000000 <_EIP>:
Code;  00000000 Before first symbol
   0:   8b 42 08                  mov    0x8(%edx),%eax
Code;  00000003 Before first symbol
   3:   39 c2                     cmp    %eax,%edx
Code;  00000005 Before first symbol
   5:   0f 84 87 00 00 00         je     92 <_EIP+0x92> 00000092 Before first symbol
Code;  0000000b Before first symbol
   b:   8b 0a                     mov    (%edx),%ecx
Code;  0000000d Before first symbol
   d:   89 44 24 18               mov    %eax,0x18(%esp,1)
Code;  00000011 Before first symbol
  11:   89 c2                     mov    %eax,%edx
Code;  00000013 Before first symbol
  13:   39 00                     cmp    %eax,(%eax)
Jul 11 20:56:07 phoenix kernel: Unable to handle kernel NULL pointer dereference at virtual address 00000008 
Jul 11 20:56:07 phoenix kernel: *pde = 00000000 
Jul 11 20:56:07 phoenix kernel: Oops: 0000 
Jul 11 20:56:07 phoenix kernel: CPU:    0 
Jul 11 20:56:07 phoenix kernel: EIP:    0010:[elf_core_dump+761/2740] 
Jul 11 20:56:07 phoenix kernel: EFLAGS: 00010207 
Jul 11 20:56:07 phoenix kernel: eax: c7f177a0   ebx: c12f4440   ecx: 00000000   edx: 00000000 
Jul 11 20:56:07 phoenix kernel: esi: c125e3a0   edi: 00000000   ebp: c12f4440   esp: c7869f00 
Jul 11 20:56:07 phoenix kernel: ds: 0018   es: 0018   ss: 0018 
Jul 11 20:56:07 phoenix kernel: Process pidof (pid: 380, stackpage=c7869000) 
Jul 11 20:56:07 phoenix kernel: Stack: c7929ac0 c7869fa4 c7929ac0 c796800b 00000000 00000000 00000000 c014c473  
Jul 11 20:56:07 phoenix kernel:        c7929ac0 00000001 c7869fa4 c7a0c1a0 c7a0c1a0 c013d32c c7a0c1a0 c7869fa4  
Jul 11 20:56:07 phoenix kernel:        c7929ac0 00000000 c7968000 c7869fa4 bffffa3c c7868000 c7869fa8 c7868000  
Jul 11 20:56:07 phoenix kernel: Call Trace: [elf_core_dump+2295/2740] [pipe_read+648/700] [pipe_poll+48/108] [sys_pivot_root+194/1004] [setup_frame+64/420]  
Jul 11 20:56:07 phoenix kernel: Code: 8b 42 08 39 c2 0f 84 87 00 00 00 8b 0a 89 44 24 18 89 c2 39  
Code;  00000000 Before first symbol
00000000 <_EIP>:
Code;  00000000 Before first symbol
   0:   8b 42 08                  mov    0x8(%edx),%eax
Code;  00000003 Before first symbol
   3:   39 c2                     cmp    %eax,%edx
Code;  00000005 Before first symbol
   5:   0f 84 87 00 00 00         je     92 <_EIP+0x92> 00000092 Before first symbol
Code;  0000000b Before first symbol
   b:   8b 0a                     mov    (%edx),%ecx
Code;  0000000d Before first symbol
   d:   89 44 24 18               mov    %eax,0x18(%esp,1)
Code;  00000011 Before first symbol
  11:   89 c2                     mov    %eax,%edx
Code;  00000013 Before first symbol
  13:   39 00                     cmp    %eax,(%eax)
Jul 11 20:56:07 phoenix kernel: Unable to handle kernel NULL pointer dereference at virtual address 00000008 
Jul 11 20:56:07 phoenix kernel: *pde = 00000000 
Jul 11 20:56:07 phoenix kernel: Oops: 0000 
Jul 11 20:56:07 phoenix kernel: CPU:    0 
Jul 11 20:56:07 phoenix kernel: EIP:    0010:[elf_core_dump+761/2740] 
Jul 11 20:56:07 phoenix kernel: EFLAGS: 00010207 
Jul 11 20:56:07 phoenix kernel: eax: c7f177a0   ebx: c12f4440   ecx: 00000000   edx: 00000000 
Jul 11 20:56:07 phoenix kernel: esi: c125e3a0   edi: 00000000   ebp: c12f4440   esp: c7831f00 
Jul 11 20:56:07 phoenix kernel: ds: 0018   es: 0018   ss: 0018 
Jul 11 20:56:07 phoenix kernel: Process pidof (pid: 393, stackpage=c7831000) 
Jul 11 20:56:07 phoenix kernel: Stack: c7929ac0 c7831fa4 c7929ac0 c794200b 00000000 00000000 00000000 c014c473  
Jul 11 20:56:07 phoenix kernel:        c7929ac0 00000001 c7831fa4 c7a0c1a0 c7a0c1a0 c013d32c c7a0c1a0 c7831fa4  
Jul 11 20:56:07 phoenix kernel:        c7929ac0 00000000 c7942000 c7831fa4 bffffa3c c7830000 c7831fa8 c7830000  
Jul 11 20:56:07 phoenix kernel: Call Trace: [elf_core_dump+2295/2740] [pipe_read+648/700] [pipe_poll+48/108] [sys_pivot_root+194/1004] [setup_frame+64/420]  
Jul 11 20:56:07 phoenix kernel: Code: 8b 42 08 39 c2 0f 84 87 00 00 00 8b 0a 89 44 24 18 89 c2 39  
Code;  00000000 Before first symbol
00000000 <_EIP>:
Code;  00000000 Before first symbol
   0:   8b 42 08                  mov    0x8(%edx),%eax
Code;  00000003 Before first symbol
   3:   39 c2                     cmp    %eax,%edx
Code;  00000005 Before first symbol
   5:   0f 84 87 00 00 00         je     92 <_EIP+0x92> 00000092 Before first symbol
Code;  0000000b Before first symbol
   b:   8b 0a                     mov    (%edx),%ecx
Code;  0000000d Before first symbol
   d:   89 44 24 18               mov    %eax,0x18(%esp,1)
Code;  00000011 Before first symbol
  11:   89 c2                     mov    %eax,%edx
Code;  00000013 Before first symbol
  13:   39 00                     cmp    %eax,(%eax)
Jul 11 20:56:07 phoenix kernel: Unable to handle kernel NULL pointer dereference at virtual address 00000008 
Jul 11 20:56:07 phoenix kernel: *pde = 00000000 
Jul 11 20:56:07 phoenix kernel: Oops: 0000 
Jul 11 20:56:07 phoenix kernel: CPU:    0 
Jul 11 20:56:07 phoenix kernel: EIP:    0010:[elf_core_dump+761/2740] 
Jul 11 20:56:07 phoenix kernel: EFLAGS: 00010207 
Jul 11 20:56:07 phoenix kernel: eax: c7f175a0   ebx: c12f4440   ecx: 00000000   edx: 00000000 
Jul 11 20:56:07 phoenix kernel: esi: c125e3a0   edi: 00000000   ebp: c12f4440   esp: c773ff00 
Jul 11 20:56:07 phoenix kernel: ds: 0018   es: 0018   ss: 0018 
Jul 11 20:56:07 phoenix kernel: Process pidof (pid: 406, stackpage=c773f000) 
Jul 11 20:56:07 phoenix kernel: Stack: c7929ac0 c773ffa4 c7929ac0 c78f500b 00000000 00000000 00000000 c014c473  
Jul 11 20:56:07 phoenix kernel:        c7929ac0 00000001 c773ffa4 c7a0c1a0 c7a0c1a0 c013d32c c7a0c1a0 c773ffa4  
Jul 11 20:56:07 phoenix kernel:        c7929ac0 00000000 c78f5000 c773ffa4 bffffa3c c773e000 c773ffa8 c773e000  
Jul 11 20:56:07 phoenix kernel: Call Trace: [elf_core_dump+2295/2740] [pipe_read+648/700] [pipe_poll+48/108] [sys_pivot_root+194/1004] [setup_frame+64/420]  
Jul 11 20:56:07 phoenix kernel: Code: 8b 42 08 39 c2 0f 84 87 00 00 00 8b 0a 89 44 24 18 89 c2 39  
Code;  00000000 Before first symbol
00000000 <_EIP>:
Code;  00000000 Before first symbol
   0:   8b 42 08                  mov    0x8(%edx),%eax
Code;  00000003 Before first symbol
   3:   39 c2                     cmp    %eax,%edx
Code;  00000005 Before first symbol
   5:   0f 84 87 00 00 00         je     92 <_EIP+0x92> 00000092 Before first symbol
Code;  0000000b Before first symbol
   b:   8b 0a                     mov    (%edx),%ecx
Code;  0000000d Before first symbol
   d:   89 44 24 18               mov    %eax,0x18(%esp,1)
Code;  00000011 Before first symbol
  11:   89 c2                     mov    %eax,%edx
Code;  00000013 Before first symbol
  13:   39 00                     cmp    %eax,(%eax)
Jul 11 20:56:07 phoenix kernel: Unable to handle kernel NULL pointer dereference at virtual address 00000008 
Jul 11 20:56:07 phoenix kernel: *pde = 00000000 
Jul 11 20:56:07 phoenix kernel: Oops: 0000 
Jul 11 20:56:07 phoenix kernel: CPU:    0 
Jul 11 20:56:07 phoenix kernel: EIP:    0010:[elf_core_dump+761/2740] 
Jul 11 20:56:07 phoenix kernel: EFLAGS: 00010207 
Jul 11 20:56:07 phoenix kernel: eax: c7f17520   ebx: c12f4440   ecx: 00000000   edx: 00000000 
Jul 11 20:56:07 phoenix kernel: esi: c125e3a0   edi: 00000000   ebp: c12f4440   esp: c76b9f00 
Jul 11 20:56:07 phoenix kernel: ds: 0018   es: 0018   ss: 0018 
Jul 11 20:56:07 phoenix kernel: Process pidof (pid: 419, stackpage=c76b9000) 
Jul 11 20:56:07 phoenix kernel: Stack: c7929ac0 c76b9fa4 c7929ac0 c78c200b 00000000 00000000 00000000 c014c473  
Jul 11 20:56:07 phoenix kernel:        c7929ac0 00000001 c76b9fa4 c7a0c1a0 c7a0c1a0 c013d32c c7a0c1a0 c76b9fa4  
Jul 11 20:56:07 phoenix kernel:        c7929ac0 00000000 c78c2000 c76b9fa4 bffffa3c c76b8000 c76b9fa8 c76b8000  
Jul 11 20:56:07 phoenix kernel: Call Trace: [elf_core_dump+2295/2740] [pipe_read+648/700] [pipe_poll+48/108] [sys_pivot_root+194/1004] [setup_frame+64/420]  
Jul 11 20:56:07 phoenix kernel: Code: 8b 42 08 39 c2 0f 84 87 00 00 00 8b 0a 89 44 24 18 89 c2 39  
Code;  00000000 Before first symbol
00000000 <_EIP>:
Code;  00000000 Before first symbol
   0:   8b 42 08                  mov    0x8(%edx),%eax
Code;  00000003 Before first symbol
   3:   39 c2                     cmp    %eax,%edx
Code;  00000005 Before first symbol
   5:   0f 84 87 00 00 00         je     92 <_EIP+0x92> 00000092 Before first symbol
Code;  0000000b Before first symbol
   b:   8b 0a                     mov    (%edx),%ecx
Code;  0000000d Before first symbol
   d:   89 44 24 18               mov    %eax,0x18(%esp,1)
Code;  00000011 Before first symbol
  11:   89 c2                     mov    %eax,%edx
Code;  00000013 Before first symbol
  13:   39 00                     cmp    %eax,(%eax)
Jul 11 20:56:07 phoenix kernel: Unable to handle kernel NULL pointer dereference at virtual address 00000008 
Jul 11 20:56:07 phoenix kernel: *pde = 00000000 
Jul 11 20:56:07 phoenix kernel: Oops: 0000 
Jul 11 20:56:07 phoenix kernel: CPU:    0 
Jul 11 20:56:07 phoenix kernel: EIP:    0010:[elf_core_dump+761/2740] 
Jul 11 20:56:07 phoenix kernel: EFLAGS: 00010207 
Jul 11 20:56:07 phoenix kernel: eax: c7f172a0   ebx: c12f4440   ecx: 00000000   edx: 00000000 
Jul 11 20:56:07 phoenix kernel: esi: c125e3a0   edi: 00000000   ebp: c12f4440   esp: c757bf00 
Jul 11 20:56:08 phoenix kernel: ds: 0018   es: 0018   ss: 0018 
Jul 11 20:56:08 phoenix kernel: Process pidof (pid: 443, stackpage=c757b000) 
Jul 11 20:56:08 phoenix kernel: Stack: c7929ac0 c757bfa4 c7929ac0 c76f700b 00000000 00000000 00000000 c014c473  
Jul 11 20:56:08 phoenix kernel:        c7929ac0 00000001 c757bfa4 c7a0c1a0 c7a0c1a0 c013d32c c7a0c1a0 c757bfa4  
Jul 11 20:56:08 phoenix kernel:        c7929ac0 00000000 c76f7000 c757bfa4 bffffa3c c757a000 c757bfa8 c757a000  
Jul 11 20:56:08 phoenix kernel: Call Trace: [elf_core_dump+2295/2740] [pipe_read+648/700] [pipe_poll+48/108] [sys_pivot_root+194/1004] [setup_frame+64/420]  
Jul 11 20:56:08 phoenix kernel: Code: 8b 42 08 39 c2 0f 84 87 00 00 00 8b 0a 89 44 24 18 89 c2 39  
Code;  00000000 Before first symbol
00000000 <_EIP>:
Code;  00000000 Before first symbol
   0:   8b 42 08                  mov    0x8(%edx),%eax
Code;  00000003 Before first symbol
   3:   39 c2                     cmp    %eax,%edx
Code;  00000005 Before first symbol
   5:   0f 84 87 00 00 00         je     92 <_EIP+0x92> 00000092 Before first symbol
Code;  0000000b Before first symbol
   b:   8b 0a                     mov    (%edx),%ecx
Code;  0000000d Before first symbol
   d:   89 44 24 18               mov    %eax,0x18(%esp,1)
Code;  00000011 Before first symbol
  11:   89 c2                     mov    %eax,%edx
Code;  00000013 Before first symbol
  13:   39 00                     cmp    %eax,(%eax)
Jul 11 20:56:10 phoenix kernel: Unable to handle kernel NULL pointer dereference at virtual address 00000008 
Jul 11 20:56:10 phoenix kernel: *pde = 00000000 
Jul 11 20:56:10 phoenix kernel: Oops: 0000 
Jul 11 20:56:10 phoenix kernel: CPU:    0 
Jul 11 20:56:10 phoenix kernel: EIP:    0010:[elf_core_dump+761/2740] 
Jul 11 20:56:10 phoenix kernel: EFLAGS: 00010207 
Jul 11 20:56:10 phoenix kernel: eax: c12f5820   ebx: c12f4440   ecx: 00000000   edx: 00000000 
Jul 11 20:56:10 phoenix kernel: esi: c125e3a0   edi: 00000000   ebp: c12f4440   esp: c74e3f00 
Jul 11 20:56:10 phoenix kernel: ds: 0018   es: 0018   ss: 0018 
Jul 11 20:56:10 phoenix kernel: Process pidof (pid: 595, stackpage=c74e3000) 
Jul 11 20:56:10 phoenix kernel: Stack: c7929ac0 c74e3fa4 c7929ac0 c734700b 00000000 00000000 00000000 c014c473  
Jul 11 20:56:10 phoenix kernel:        c7929ac0 00000001 c74e3fa4 c7a0c1a0 c7a0c1a0 c013d32c c7a0c1a0 c74e3fa4  
Jul 11 20:56:10 phoenix kernel:        c7929ac0 00000000 c7347000 c74e3fa4 bffffa3c c74e2000 c74e3fa8 c74e2000  
Jul 11 20:56:10 phoenix kernel: Call Trace: [elf_core_dump+2295/2740] [pipe_read+648/700] [pipe_poll+48/108] [sys_pivot_root+194/1004] [setup_frame+64/420]  
Jul 11 20:56:10 phoenix kernel: Code: 8b 42 08 39 c2 0f 84 87 00 00 00 8b 0a 89 44 24 18 89 c2 39  
Code;  00000000 Before first symbol
00000000 <_EIP>:
Code;  00000000 Before first symbol
   0:   8b 42 08                  mov    0x8(%edx),%eax
Code;  00000003 Before first symbol
   3:   39 c2                     cmp    %eax,%edx
Code;  00000005 Before first symbol
   5:   0f 84 87 00 00 00         je     92 <_EIP+0x92> 00000092 Before first symbol
Code;  0000000b Before first symbol
   b:   8b 0a                     mov    (%edx),%ecx
Code;  0000000d Before first symbol
   d:   89 44 24 18               mov    %eax,0x18(%esp,1)
Code;  00000011 Before first symbol
  11:   89 c2                     mov    %eax,%edx
Code;  00000013 Before first symbol
  13:   39 00                     cmp    %eax,(%eax)
Jul 11 20:56:11 phoenix kernel: Unable to handle kernel NULL pointer dereference at virtual address 00000008 
Jul 11 20:56:11 phoenix kernel: *pde = 00000000 
Jul 11 20:56:11 phoenix kernel: Oops: 0000 
Jul 11 20:56:11 phoenix kernel: CPU:    0 
Jul 11 20:56:11 phoenix kernel: EIP:    0010:[elf_core_dump+761/2740] 
Jul 11 20:56:11 phoenix kernel: EFLAGS: 00010207 
Jul 11 20:56:11 phoenix kernel: eax: c12f5ce0   ebx: c12f4440   ecx: 00000000   edx: 00000000 
Jul 11 20:56:11 phoenix kernel: esi: c125e3a0   edi: 00000000   ebp: c12f4440   esp: c7285f00 
Jul 11 20:56:11 phoenix kernel: ds: 0018   es: 0018   ss: 0018 
Jul 11 20:56:11 phoenix kernel: Process pidof (pid: 678, stackpage=c7285000) 
Jul 11 20:56:11 phoenix kernel: Stack: c7929ac0 c7285fa4 c7929ac0 c783b00b 00000000 00000000 00000000 c014c473  
Jul 11 20:56:11 phoenix kernel:        c7929ac0 00000001 c7285fa4 c7a0c1a0 c7a0c1a0 c013d32c c7a0c1a0 c7285fa4  
Jul 11 20:56:11 phoenix kernel:        c7929ac0 00000000 c783b000 c7285fa4 bffffa3c c7284000 c7285fa8 c7284000  
Jul 11 20:56:11 phoenix kernel: Call Trace: [elf_core_dump+2295/2740] [pipe_read+648/700] [pipe_poll+48/108] [sys_pivot_root+194/1004] [setup_frame+64/420]  
Jul 11 20:56:11 phoenix kernel: Code: 8b 42 08 39 c2 0f 84 87 00 00 00 8b 0a 89 44 24 18 89 c2 39  
Code;  00000000 Before first symbol
00000000 <_EIP>:
Code;  00000000 Before first symbol
   0:   8b 42 08                  mov    0x8(%edx),%eax
Code;  00000003 Before first symbol
   3:   39 c2                     cmp    %eax,%edx
Code;  00000005 Before first symbol
   5:   0f 84 87 00 00 00         je     92 <_EIP+0x92> 00000092 Before first symbol
Code;  0000000b Before first symbol
   b:   8b 0a                     mov    (%edx),%ecx
Code;  0000000d Before first symbol
   d:   89 44 24 18               mov    %eax,0x18(%esp,1)
Code;  00000011 Before first symbol
  11:   89 c2                     mov    %eax,%edx
Code;  00000013 Before first symbol
  13:   39 00                     cmp    %eax,(%eax)
Jul 11 20:56:16 phoenix kernel: Unable to handle kernel NULL pointer dereference at virtual address 00000008 
Jul 11 20:56:16 phoenix kernel: *pde = 00000000 
Jul 11 20:56:16 phoenix kernel: Oops: 0000 
Jul 11 20:56:16 phoenix kernel: CPU:    0 
Jul 11 20:56:16 phoenix kernel: EIP:    0010:[elf_core_dump+761/2740] 
Jul 11 20:56:16 phoenix kernel: EFLAGS: 00010207 
Jul 11 20:56:16 phoenix kernel: eax: c12f58a0   ebx: c12f4440   ecx: 00000000   edx: 00000000 
Jul 11 20:56:16 phoenix kernel: esi: c125e3a0   edi: 00000000   ebp: c12f4440   esp: c6d17f00 
Jul 11 20:56:16 phoenix kernel: ds: 0018   es: 0018   ss: 0018 
Jul 11 20:56:16 phoenix kernel: Process pidof (pid: 809, stackpage=c6d17000) 
Jul 11 20:56:16 phoenix kernel: Stack: c7929ac0 c6d17fa4 c7929ac0 c754500b 00000000 00000000 00000000 c014c473  
Jul 11 20:56:16 phoenix kernel:        c7929ac0 00000001 c6d17fa4 c7a0c1a0 c7a0c1a0 c013d32c c7a0c1a0 c6d17fa4  
Jul 11 20:56:16 phoenix kernel:        c7929ac0 00000000 c7545000 c6d17fa4 bffff9ec c6d16000 c6d17fa8 c6d16000  
Jul 11 20:56:16 phoenix kernel: Call Trace: [elf_core_dump+2295/2740] [pipe_read+648/700] [pipe_poll+48/108] [sys_pivot_root+194/1004] [setup_frame+64/420]  
Jul 11 20:56:16 phoenix kernel: Code: 8b 42 08 39 c2 0f 84 87 00 00 00 8b 0a 89 44 24 18 89 c2 39  
Code;  00000000 Before first symbol
00000000 <_EIP>:
Code;  00000000 Before first symbol
   0:   8b 42 08                  mov    0x8(%edx),%eax
Code;  00000003 Before first symbol
   3:   39 c2                     cmp    %eax,%edx
Code;  00000005 Before first symbol
   5:   0f 84 87 00 00 00         je     92 <_EIP+0x92> 00000092 Before first symbol
Code;  0000000b Before first symbol
   b:   8b 0a                     mov    (%edx),%ecx
Code;  0000000d Before first symbol
   d:   89 44 24 18               mov    %eax,0x18(%esp,1)
Code;  00000011 Before first symbol
  11:   89 c2                     mov    %eax,%edx
Code;  00000013 Before first symbol
  13:   39 00                     cmp    %eax,(%eax)
Jul 11 20:56:17 phoenix kernel: Unable to handle kernel NULL pointer dereference at virtual address 00000008 
Jul 11 20:56:17 phoenix kernel: *pde = 00000000 
Jul 11 20:56:17 phoenix kernel: Oops: 0000 
Jul 11 20:56:17 phoenix kernel: CPU:    0 
Jul 11 20:56:17 phoenix kernel: EIP:    0010:[elf_core_dump+761/2740] 
Jul 11 20:56:17 phoenix kernel: EFLAGS: 00010207 
Jul 11 20:56:17 phoenix kernel: eax: c12f5ba0   ebx: c12f4440   ecx: 00000000   edx: 00000000 
Jul 11 20:56:17 phoenix kernel: esi: c125e3a0   edi: 00000000   ebp: c12f4440   esp: c6cc7f00 
Jul 11 20:56:17 phoenix kernel: ds: 0018   es: 0018   ss: 0018 
Jul 11 20:56:17 phoenix kernel: Process pidof (pid: 822, stackpage=c6cc7000) 
Jul 11 20:56:17 phoenix kernel: Stack: c7929ac0 c6cc7fa4 c7929ac0 c7ad700b 00000000 00000000 00000000 c014c473  
Jul 11 20:56:17 phoenix kernel:        c7929ac0 00000001 c6cc7fa4 c7a0c1a0 c7a0c1a0 c013d32c c7a0c1a0 c6cc7fa4  
Jul 11 20:56:17 phoenix kernel:        c7929ac0 00000000 c7ad7000 c6cc7fa4 bffffa3c c6cc6000 c6cc7fa8 c6cc6000  
Jul 11 20:56:17 phoenix kernel: Call Trace: [elf_core_dump+2295/2740] [pipe_read+648/700] [pipe_poll+48/108] [sys_pivot_root+194/1004] [setup_frame+64/420]  
Jul 11 20:56:17 phoenix kernel: Code: 8b 42 08 39 c2 0f 84 87 00 00 00 8b 0a 89 44 24 18 89 c2 39  
Code;  00000000 Before first symbol
00000000 <_EIP>:
Code;  00000000 Before first symbol
   0:   8b 42 08                  mov    0x8(%edx),%eax
Code;  00000003 Before first symbol
   3:   39 c2                     cmp    %eax,%edx
Code;  00000005 Before first symbol
   5:   0f 84 87 00 00 00         je     92 <_EIP+0x92> 00000092 Before first symbol
Code;  0000000b Before first symbol
   b:   8b 0a                     mov    (%edx),%ecx
Code;  0000000d Before first symbol
   d:   89 44 24 18               mov    %eax,0x18(%esp,1)
Code;  00000011 Before first symbol
  11:   89 c2                     mov    %eax,%edx
Code;  00000013 Before first symbol
  13:   39 00                     cmp    %eax,(%eax)
Jul 11 20:56:18 phoenix kernel: Unable to handle kernel NULL pointer dereference at virtual address 00000008 
Jul 11 20:56:18 phoenix kernel: *pde = 00000000 
Jul 11 20:56:18 phoenix kernel: Oops: 0000 
Jul 11 20:56:18 phoenix kernel: CPU:    0 
Jul 11 20:56:18 phoenix kernel: EIP:    0010:[elf_core_dump+761/2740] 
Jul 11 20:56:18 phoenix kernel: EFLAGS: 00010207 
Jul 11 20:56:18 phoenix kernel: eax: c12f5ca0   ebx: c12f4440   ecx: 00000000   edx: 00000000 
Jul 11 20:56:18 phoenix kernel: esi: c125e3a0   edi: 00000000   ebp: c12f4440   esp: c6b3bf00 
Jul 11 20:56:18 phoenix kernel: ds: 0018   es: 0018   ss: 0018 
Jul 11 20:56:18 phoenix kernel: Process pidof (pid: 830, stackpage=c6b3b000) 
Jul 11 20:56:18 phoenix kernel: Stack: c7929ac0 c6b3bfa4 c7929ac0 c76a300b 00000000 00000000 00000000 c014c473  
Jul 11 20:56:18 phoenix kernel:        c7929ac0 00000001 c6b3bfa4 c7a0c1a0 c7a0c1a0 c013d32c c7a0c1a0 c6b3bfa4  
Jul 11 20:56:18 phoenix kernel:        c7929ac0 00000000 c76a3000 c6b3bfa4 bffffa3c c6b3a000 c6b3bfa8 c6b3a000  
Jul 11 20:56:18 phoenix kernel: Call Trace: [elf_core_dump+2295/2740] [pipe_read+648/700] [pipe_poll+48/108] [sys_pivot_root+194/1004] [setup_frame+64/420]  
Jul 11 20:56:18 phoenix kernel: Code: 8b 42 08 39 c2 0f 84 87 00 00 00 8b 0a 89 44 24 18 89 c2 39  
Code;  00000000 Before first symbol
00000000 <_EIP>:
Code;  00000000 Before first symbol
   0:   8b 42 08                  mov    0x8(%edx),%eax
Code;  00000003 Before first symbol
   3:   39 c2                     cmp    %eax,%edx
Code;  00000005 Before first symbol
   5:   0f 84 87 00 00 00         je     92 <_EIP+0x92> 00000092 Before first symbol
Code;  0000000b Before first symbol
   b:   8b 0a                     mov    (%edx),%ecx
Code;  0000000d Before first symbol
   d:   89 44 24 18               mov    %eax,0x18(%esp,1)
Code;  00000011 Before first symbol
  11:   89 c2                     mov    %eax,%edx
Code;  00000013 Before first symbol
  13:   39 00                     cmp    %eax,(%eax)
4 warnings issued.  Results may not be reliable.