Date: Wed, 30 Aug 2000 11:59:47 +0930
From: "Sheldon Easterbrook" <>
Subject: Oops in 2.4.0-test7 and 2.4.0-test8/pre1
Sender: linux-kernel-owner@vger.kernel.org
Precedence: bulk
List-ID: <linux-kernel.vger.kernel.org>
X-Mailing-List: linux-kernel@vger.kernel.org
X-Lkml-Link: https://lkml.org/lkml/2000/8/29/91

Hi,
I'm getting a lot of oopses (or is it oopsii) when ESD tries to load.
Sheldon.
ksymoops 0.7c on i686 2.4.0-test6.  Options used
     -V (default)
     -k /proc/ksyms (default)
     -l /proc/modules (default)
     -o /lib/modules/2.4.0-test6/ (default)
     -m /usr/src/linux/System.map (default)
Warning: You did not tell me where to find symbol information.  I will
assume that the log matches the kernel and modules that are running
right now and I'll use the default options above for symbol resolution.
If the current kernel and/or modules do not match the log, you can get
more accurate output by telling me the kernel version and where to find
map, modules, ksyms etc.  ksymoops -h explains the options.
Aug 28 06:59:35 Defiant kernel:  e820: 000000000009fc00 @ 0000000000000000 (usable) 
Aug 28 06:59:35 Defiant kernel:  e820: 0000000000000400 @ 000000000009fc00 (reserved) 
Aug 28 06:59:35 Defiant kernel:  e820: 0000000000010000 @ 00000000000f0000 (reserved) 
Aug 28 06:59:35 Defiant kernel:  e820: 0000000003ef6000 @ 0000000000100000 (usable) 
Aug 28 06:59:35 Defiant kernel:  e820: 000000000000a000 @ 0000000003ff6000 (ACPI NVS) 
Aug 28 11:04:44 Defiant kernel:  e820: 000000000009fc00 @ 0000000000000000 (usable) 
Aug 28 11:04:44 Defiant kernel:  e820: 0000000000000400 @ 000000000009fc00 (reserved) 
Aug 28 11:04:44 Defiant kernel:  e820: 0000000000010000 @ 00000000000f0000 (reserved) 
Aug 28 11:04:44 Defiant kernel:  e820: 0000000003ef6000 @ 0000000000100000 (usable) 
Aug 28 11:04:44 Defiant kernel:  e820: 000000000000a000 @ 0000000003ff6000 (ACPI NVS) 
Aug 28 15:37:45 Defiant kernel:  e820: 000000000009fc00 @ 0000000000000000 (usable) 
Aug 28 15:37:45 Defiant kernel:  e820: 0000000000000400 @ 000000000009fc00 (reserved) 
Aug 28 15:37:45 Defiant kernel:  e820: 0000000000010000 @ 00000000000f0000 (reserved) 
Aug 28 15:37:45 Defiant kernel:  e820: 0000000003ef6000 @ 0000000000100000 (usable) 
Aug 28 15:37:45 Defiant kernel:  e820: 000000000000a000 @ 0000000003ff6000 (ACPI NVS) 
Aug 28 19:19:53 Defiant kernel:  e820: 000000000009fc00 @ 0000000000000000 (usable) 
Aug 28 19:19:53 Defiant kernel:  e820: 0000000000000400 @ 000000000009fc00 (reserved) 
Aug 28 19:19:53 Defiant kernel:  e820: 0000000000010000 @ 00000000000f0000 (reserved) 
Aug 28 19:19:53 Defiant kernel:  e820: 0000000003ef6000 @ 0000000000100000 (usable) 
Aug 28 19:19:53 Defiant kernel:  e820: 000000000000a000 @ 0000000003ff6000 (ACPI NVS) 
Aug 28 19:24:06 Defiant kernel:  e820: 000000000009fc00 @ 0000000000000000 (usable) 
Aug 28 19:24:06 Defiant kernel:  e820: 0000000000000400 @ 000000000009fc00 (reserved) 
Aug 28 19:24:06 Defiant kernel:  e820: 0000000000010000 @ 00000000000f0000 (reserved) 
Aug 28 19:24:06 Defiant kernel:  e820: 0000000003ef6000 @ 0000000000100000 (usable) 
Aug 28 19:24:06 Defiant kernel:  e820: 000000000000a000 @ 0000000003ff6000 (ACPI NVS) 
Aug 28 19:29:57 Defiant kernel:  e820: 000000000009fc00 @ 0000000000000000 (usable) 
Aug 28 19:29:57 Defiant kernel:  e820: 0000000000000400 @ 000000000009fc00 (reserved) 
Aug 28 19:29:57 Defiant kernel:  e820: 0000000000010000 @ 00000000000f0000 (reserved) 
Aug 28 19:29:57 Defiant kernel:  e820: 0000000003ef6000 @ 0000000000100000 (usable) 
Aug 28 19:29:57 Defiant kernel:  e820: 000000000000a000 @ 0000000003ff6000 (ACPI NVS) 
Aug 28 20:16:18 Defiant kernel:  e820: 000000000009fc00 @ 0000000000000000 (usable) 
Aug 28 20:16:18 Defiant kernel:  e820: 0000000000000400 @ 000000000009fc00 (reserved) 
Aug 28 20:16:18 Defiant kernel:  e820: 0000000000010000 @ 00000000000f0000 (reserved) 
Aug 28 20:16:18 Defiant kernel:  e820: 0000000003ef6000 @ 0000000000100000 (usable) 
Aug 28 20:16:18 Defiant kernel:  e820: 000000000000a000 @ 0000000003ff6000 (ACPI NVS) 
Aug 28 22:14:47 Defiant kernel:  e820: 000000000009fc00 @ 0000000000000000 (usable) 
Aug 28 22:14:47 Defiant kernel:  e820: 0000000000000400 @ 000000000009fc00 (reserved) 
Aug 28 22:14:47 Defiant kernel:  e820: 0000000000010000 @ 00000000000f0000 (reserved) 
Aug 28 22:14:47 Defiant kernel:  e820: 0000000003ef6000 @ 0000000000100000 (usable) 
Aug 28 22:14:47 Defiant kernel:  e820: 000000000000a000 @ 0000000003ff6000 (ACPI NVS) 
Aug 29 06:58:11 Defiant kernel:  e820: 000000000009fc00 @ 0000000000000000 (usable) 
Aug 29 06:58:11 Defiant kernel:  e820: 0000000000000400 @ 000000000009fc00 (reserved) 
Aug 29 06:58:11 Defiant kernel:  e820: 0000000000010000 @ 00000000000f0000 (reserved) 
Aug 29 06:58:11 Defiant kernel:  e820: 0000000003ef6000 @ 0000000000100000 (usable) 
Aug 29 06:58:11 Defiant kernel:  e820: 000000000000a000 @ 0000000003ff6000 (ACPI NVS) 
Aug 29 11:43:37 Defiant kernel: Unable to handle kernel paging request at virtual address c4836320 
Aug 29 11:43:37 Defiant kernel: c482845d 
Aug 29 11:43:37 Defiant kernel: *pde = 03fa8063 
Aug 29 11:43:37 Defiant kernel: Oops: 0000 
Aug 29 11:43:37 Defiant kernel: CPU:    0 
Aug 29 11:43:37 Defiant kernel: EIP:    0010:[fat:__insmod_fat_S.bss_L2240+70109/56182635] 
Aug 29 11:43:37 Defiant kernel: EFLAGS: 00010282 
Aug 29 11:43:37 Defiant kernel: eax: c4836320   ebx: c365aec0   ecx: 00000003   edx: 00000003 
Aug 29 11:43:37 Defiant kernel: esi: c19f55c0   edi: 00000003   ebp: 00000003   esp: c19cff00 
Aug 29 11:43:37 Defiant kernel: ds: 0018   es: 0018   ss: 0018 
Aug 29 11:43:37 Defiant kernel: Process esd (pid: 530, stackpage=c19cf000) 
Aug 29 11:43:37 Defiant kernel: Stack: 00000000 c19f55c0 c18c3680 c3fa97a0 00000000 c18c3680 c3fa97a0 00000070  
Aug 29 11:43:37 Defiant kernel:        72616863 6a616d2d 312d726f 00000034 c3659000 c012d08c c18c3680 c19f55c0  
Aug 29 11:43:37 Defiant kernel:        c19f55c0 c18c3680 00000000 c012c313 c18c3680 c19f55c0 00000000 c3659000  
Aug 29 11:43:37 Defiant kernel: Call Trace: [chrdev_open+64/76] [dentry_open+191/328] [filp_open+82/92] [sys_open+56/180] [system_call+51/56]  
Aug 29 11:43:37 Defiant kernel: Code: 8b 30 85 f6 74 1d 56 e8 93 0e 8f fb 83 c4 04 85 c0 74 1b 8b  
Using defaults from ksymoops -t elf32-i386 -a i386
Code;  00000000 Before first symbol
00000000 <_EIP>:
Code;  00000000 Before first symbol
   0:   8b 30                     mov    (%eax),%esi
Code;  00000002 Before first symbol
   2:   85 f6                     test   %esi,%esi
Code;  00000004 Before first symbol
   4:   74 1d                     je     23 <_EIP+0x23> 00000023 Before first symbol
Code;  00000006 Before first symbol
   6:   56                        push   %esi
Code;  00000007 Before first symbol
   7:   e8 93 0e 8f fb            call   fb8f0e9f <_EIP+0xfb8f0e9f> fb8f0e9f <END_OF_CODE+370ad1bf/????>
Code;  0000000c Before first symbol
   c:   83 c4 04                  add    $0x4,%esp
Code;  0000000f Before first symbol
   f:   85 c0                     test   %eax,%eax
Code;  00000011 Before first symbol
  11:   74 1b                     je     2e <_EIP+0x2e> 0000002e Before first symbol
Code;  00000013 Before first symbol
  13:   8b 00                     mov    (%eax),%eax
Aug 29 11:43:47 Defiant kernel: Unable to handle kernel paging request at virtual address c4836320 
Aug 29 11:43:47 Defiant kernel: *pde = 03fa8063 
Aug 29 11:43:47 Defiant kernel: Oops: 0000 
Aug 29 11:43:47 Defiant kernel: CPU:    0 
Aug 29 11:43:47 Defiant kernel: EIP:    0010:[fat:__insmod_fat_S.bss_L2240+70109/56182635] 
Aug 29 11:43:47 Defiant kernel: EFLAGS: 00010282 
Aug 29 11:43:47 Defiant kernel: eax: c4836320   ebx: c365aec0   ecx: 00000003   edx: 00000003 
Aug 29 11:43:47 Defiant kernel: esi: c1eb9ae0   edi: 00000003   ebp: 00000003   esp: c19a9f00 
Aug 29 11:43:47 Defiant kernel: ds: 0018   es: 0018   ss: 0018 
Aug 29 11:43:47 Defiant kernel: Process esd (pid: 534, stackpage=c19a9000) 
Aug 29 11:43:47 Defiant kernel: Stack: 00000000 c1eb9ae0 c18c3680 c3fa97a0 00000000 c18c3680 c3fa97a0 00000070  
Aug 29 11:43:47 Defiant kernel:        00000001 ffffffeb c18c3680 00000002 c3c1e000 c012d08c c18c3680 c1eb9ae0  
Aug 29 11:43:47 Defiant kernel:        c1eb9ae0 c18c3680 00000000 c012c313 c18c3680 c1eb9ae0 00000000 c3c1e000  
Aug 29 11:43:47 Defiant kernel: Call Trace: [chrdev_open+64/76] [dentry_open+191/328] [filp_open+82/92] [sys_open+56/180] [system_call+51/56]  
Aug 29 11:43:47 Defiant kernel: Code: 8b 30 85 f6 74 1d 56 e8 93 0e 8f fb 83 c4 04 85 c0 74 1b 8b  
Code;  00000000 Before first symbol
00000000 <_EIP>:
Code;  00000000 Before first symbol
   0:   8b 30                     mov    (%eax),%esi
Code;  00000002 Before first symbol
   2:   85 f6                     test   %esi,%esi
Code;  00000004 Before first symbol
   4:   74 1d                     je     23 <_EIP+0x23> 00000023 Before first symbol
Code;  00000006 Before first symbol
   6:   56                        push   %esi
Code;  00000007 Before first symbol
   7:   e8 93 0e 8f fb            call   fb8f0e9f <_EIP+0xfb8f0e9f> fb8f0e9f <END_OF_CODE+370ad1bf/????>
Code;  0000000c Before first symbol
   c:   83 c4 04                  add    $0x4,%esp
Code;  0000000f Before first symbol
   f:   85 c0                     test   %eax,%eax
Code;  00000011 Before first symbol
  11:   74 1b                     je     2e <_EIP+0x2e> 0000002e Before first symbol
Code;  00000013 Before first symbol
  13:   8b 00                     mov    (%eax),%eax
Aug 29 11:43:59 Defiant kernel: Unable to handle kernel paging request at virtual address c4836320 
Aug 29 11:43:59 Defiant kernel: *pde = 03fa8063 
Aug 29 11:43:59 Defiant kernel: Oops: 0000 
Aug 29 11:43:59 Defiant kernel: CPU:    0 
Aug 29 11:43:59 Defiant kernel: EIP:    0010:[fat:__insmod_fat_S.bss_L2240+70109/56182635] 
Aug 29 11:43:59 Defiant kernel: EFLAGS: 00010282 
Aug 29 11:43:59 Defiant kernel: eax: c4836320   ebx: c365aec0   ecx: 00000003   edx: 00000003 
Aug 29 11:43:59 Defiant kernel: esi: c178bf60   edi: 00000003   ebp: 00000003   esp: c1697f00 
Aug 29 11:43:59 Defiant kernel: ds: 0018   es: 0018   ss: 0018 
Aug 29 11:43:59 Defiant kernel: Process esd (pid: 555, stackpage=c1697000) 
Aug 29 11:43:59 Defiant kernel: Stack: 00000000 c178bf60 c18c3680 c3fa97a0 00000000 c18c3680 c3fa97a0 00000070  
Aug 29 11:43:59 Defiant kernel:        00000001 ffffffeb c18c3680 00000002 c3bef000 c012d08c c18c3680 c178bf60  
Aug 29 11:43:59 Defiant kernel:        c178bf60 c18c3680 00000000 c012c313 c18c3680 c178bf60 00000000 c3bef000  
Aug 29 11:43:59 Defiant kernel: Call Trace: [chrdev_open+64/76] [dentry_open+191/328] [filp_open+82/92] [sys_open+56/180] [system_call+51/56]  
Aug 29 11:43:59 Defiant kernel: Code: 8b 30 85 f6 74 1d 56 e8 93 0e 8f fb 83 c4 04 85 c0 74 1b 8b  
Code;  00000000 Before first symbol
00000000 <_EIP>:
Code;  00000000 Before first symbol
   0:   8b 30                     mov    (%eax),%esi
Code;  00000002 Before first symbol
   2:   85 f6                     test   %esi,%esi
Code;  00000004 Before first symbol
   4:   74 1d                     je     23 <_EIP+0x23> 00000023 Before first symbol
Code;  00000006 Before first symbol
   6:   56                        push   %esi
Code;  00000007 Before first symbol
   7:   e8 93 0e 8f fb            call   fb8f0e9f <_EIP+0xfb8f0e9f> fb8f0e9f <END_OF_CODE+370ad1bf/????>
Code;  0000000c Before first symbol
   c:   83 c4 04                  add    $0x4,%esp
Code;  0000000f Before first symbol
   f:   85 c0                     test   %eax,%eax
Code;  00000011 Before first symbol
  11:   74 1b                     je     2e <_EIP+0x2e> 0000002e Before first symbol
Code;  00000013 Before first symbol
  13:   8b 00                     mov    (%eax),%eax
Aug 29 11:43:59 Defiant kernel: Unable to handle kernel paging request at virtual address c4836320 
Aug 29 11:43:59 Defiant kernel: *pde = 03fa8063 
Aug 29 11:43:59 Defiant kernel: Oops: 0000 
Aug 29 11:43:59 Defiant kernel: CPU:    0 
Aug 29 11:43:59 Defiant kernel: EIP:    0010:[fat:__insmod_fat_S.bss_L2240+70109/56182635] 
Aug 29 11:43:59 Defiant kernel: EFLAGS: 00010282 
Aug 29 11:43:59 Defiant kernel: eax: c4836320   ebx: c365aec0   ecx: 00000003   edx: 00000003 
Aug 29 11:43:59 Defiant kernel: esi: c167ef20   edi: 00000003   ebp: 00000003   esp: c1601f00 
Aug 29 11:43:59 Defiant kernel: ds: 0018   es: 0018   ss: 0018 
Aug 29 11:43:59 Defiant kernel: Process esd (pid: 564, stackpage=c1601000) 
Aug 29 11:43:59 Defiant kernel: Stack: 00000000 c167ef20 c18c3680 c3fa97a0 00000000 c18c3680 c3fa97a0 00000070  
Aug 29 11:43:59 Defiant kernel:        00000001 ffffffeb c18c3680 00000002 c3b42000 c012d08c c18c3680 c167ef20  
Aug 29 11:43:59 Defiant kernel:        c167ef20 c18c3680 00000000 c012c313 c18c3680 c167ef20 00000000 c3b42000  
Aug 29 11:43:59 Defiant kernel: Call Trace: [chrdev_open+64/76] [dentry_open+191/328] [filp_open+82/92] [sys_open+56/180] [system_call+51/56]  
Aug 29 11:43:59 Defiant kernel: Code: 8b 30 85 f6 74 1d 56 e8 93 0e 8f fb 83 c4 04 85 c0 74 1b 8b  
Code;  00000000 Before first symbol
00000000 <_EIP>:
Code;  00000000 Before first symbol
   0:   8b 30                     mov    (%eax),%esi
Code;  00000002 Before first symbol
   2:   85 f6                     test   %esi,%esi
Code;  00000004 Before first symbol
   4:   74 1d                     je     23 <_EIP+0x23> 00000023 Before first symbol
Code;  00000006 Before first symbol
   6:   56                        push   %esi
Code;  00000007 Before first symbol
   7:   e8 93 0e 8f fb            call   fb8f0e9f <_EIP+0xfb8f0e9f> fb8f0e9f <END_OF_CODE+370ad1bf/????>
Code;  0000000c Before first symbol
   c:   83 c4 04                  add    $0x4,%esp
Code;  0000000f Before first symbol
   f:   85 c0                     test   %eax,%eax
Code;  00000011 Before first symbol
  11:   74 1b                     je     2e <_EIP+0x2e> 0000002e Before first symbol
Code;  00000013 Before first symbol
  13:   8b 00                     mov    (%eax),%eax
Aug 29 11:43:59 Defiant kernel: Unable to handle kernel paging request at virtual address c4836320 
Aug 29 11:43:59 Defiant kernel: *pde = 03fa8063 
Aug 29 11:43:59 Defiant kernel: Oops: 0000 
Aug 29 11:43:59 Defiant kernel: CPU:    0 
Aug 29 11:43:59 Defiant kernel: EIP:    0010:[fat:__insmod_fat_S.bss_L2240+70109/56182635] 
Aug 29 11:43:59 Defiant kernel: EFLAGS: 00010282 
Aug 29 11:43:59 Defiant kernel: eax: c4836320   ebx: c365aec0   ecx: 00000003   edx: 00000003 
Aug 29 11:43:59 Defiant kernel: esi: c167ea40   edi: 00000003   ebp: 00000003   esp: c1635f00 
Aug 29 11:43:59 Defiant kernel: ds: 0018   es: 0018   ss: 0018 
Aug 29 11:43:59 Defiant kernel: Process esd (pid: 562, stackpage=c1635000) 
Aug 29 11:43:59 Defiant kernel: Stack: 00000000 c167ea40 c18c3680 c3fa97a0 00000000 c18c3680 c3fa97a0 00000070  
Aug 29 11:43:59 Defiant kernel:        00000001 ffffffeb c18c3680 00000002 c3a14000 c012d08c c18c3680 c167ea40  
Aug 29 11:43:59 Defiant kernel:        c167ea40 c18c3680 00000000 c012c313 c18c3680 c167ea40 00000000 c3a14000  
Aug 29 11:43:59 Defiant kernel: Call Trace: [chrdev_open+64/76] [dentry_open+191/328] [filp_open+82/92] [sys_open+56/180] [system_call+51/56]  
Aug 29 11:43:59 Defiant kernel: Code: 8b 30 85 f6 74 1d 56 e8 93 0e 8f fb 83 c4 04 85 c0 74 1b 8b  
Code;  00000000 Before first symbol
00000000 <_EIP>:
Code;  00000000 Before first symbol
   0:   8b 30                     mov    (%eax),%esi
Code;  00000002 Before first symbol
   2:   85 f6                     test   %esi,%esi
Code;  00000004 Before first symbol
   4:   74 1d                     je     23 <_EIP+0x23> 00000023 Before first symbol
Code;  00000006 Before first symbol
   6:   56                        push   %esi
Code;  00000007 Before first symbol
   7:   e8 93 0e 8f fb            call   fb8f0e9f <_EIP+0xfb8f0e9f> fb8f0e9f <END_OF_CODE+370ad1bf/????>
Code;  0000000c Before first symbol
   c:   83 c4 04                  add    $0x4,%esp
Code;  0000000f Before first symbol
   f:   85 c0                     test   %eax,%eax
Code;  00000011 Before first symbol
  11:   74 1b                     je     2e <_EIP+0x2e> 0000002e Before first symbol
Code;  00000013 Before first symbol
  13:   8b 00                     mov    (%eax),%eax
Aug 29 11:43:59 Defiant kernel: Unable to handle kernel paging request at virtual address c4836320 
Aug 29 11:43:59 Defiant kernel: *pde = 03fa8063 
Aug 29 11:43:59 Defiant kernel: Oops: 0000 
Aug 29 11:43:59 Defiant kernel: CPU:    0 
Aug 29 11:43:59 Defiant kernel: EIP:    0010:[fat:__insmod_fat_S.bss_L2240+70109/56182635] 
Aug 29 11:43:59 Defiant kernel: EFLAGS: 00010282 
Aug 29 11:43:59 Defiant kernel: eax: c4836320   ebx: c365aec0   ecx: 00000003   edx: 00000003 
Aug 29 11:43:59 Defiant kernel: esi: c167e9e0   edi: 00000003   ebp: 00000003   esp: c16e7f00 
Aug 29 11:43:59 Defiant kernel: ds: 0018   es: 0018   ss: 0018 
Aug 29 11:43:59 Defiant kernel: Process esd (pid: 560, stackpage=c16e7000) 
Aug 29 11:43:59 Defiant kernel: Stack: 00000000 c167e9e0 c18c3680 c3fa97a0 00000000 c18c3680 c3fa97a0 00000070  
Aug 29 11:43:59 Defiant kernel:        00000001 ffffffeb c18c3680 00000002 c356d000 c012d08c c18c3680 c167e9e0  
Aug 29 11:43:59 Defiant kernel:        c167e9e0 c18c3680 00000000 c012c313 c18c3680 c167e9e0 00000000 c356d000  
Aug 29 11:43:59 Defiant kernel: Call Trace: [chrdev_open+64/76] [dentry_open+191/328] [filp_open+82/92] [sys_open+56/180] [system_call+51/56]  
Aug 29 11:43:59 Defiant kernel: Code: 8b 30 85 f6 74 1d 56 e8 93 0e 8f fb 83 c4 04 85 c0 74 1b 8b  
Code;  00000000 Before first symbol
00000000 <_EIP>:
Code;  00000000 Before first symbol
   0:   8b 30                     mov    (%eax),%esi
Code;  00000002 Before first symbol
   2:   85 f6                     test   %esi,%esi
Code;  00000004 Before first symbol
   4:   74 1d                     je     23 <_EIP+0x23> 00000023 Before first symbol
Code;  00000006 Before first symbol
   6:   56                        push   %esi
Code;  00000007 Before first symbol
   7:   e8 93 0e 8f fb            call   fb8f0e9f <_EIP+0xfb8f0e9f> fb8f0e9f <END_OF_CODE+370ad1bf/????>
Code;  0000000c Before first symbol
   c:   83 c4 04                  add    $0x4,%esp
Code;  0000000f Before first symbol
   f:   85 c0                     test   %eax,%eax
Code;  00000011 Before first symbol
  11:   74 1b                     je     2e <_EIP+0x2e> 0000002e Before first symbol
Code;  00000013 Before first symbol
  13:   8b 00                     mov    (%eax),%eax
Aug 29 11:43:59 Defiant kernel: Unable to handle kernel paging request at virtual address c4836320 
Aug 29 11:43:59 Defiant kernel: *pde = 03fa8063 
Aug 29 11:43:59 Defiant kernel: Oops: 0000 
Aug 29 11:43:59 Defiant kernel: CPU:    0 
Aug 29 11:43:59 Defiant kernel: EIP:    0010:[fat:__insmod_fat_S.bss_L2240+70109/56182635] 
Aug 29 11:43:59 Defiant kernel: EFLAGS: 00010282 
Aug 29 11:43:59 Defiant kernel: eax: c4836320   ebx: c365aec0   ecx: 00000003   edx: 00000003 
Aug 29 11:43:59 Defiant kernel: esi: c167e2c0   edi: 00000003   ebp: 00000003   esp: c167df00 
Aug 29 11:43:59 Defiant kernel: ds: 0018   es: 0018   ss: 0018 
Aug 29 11:43:59 Defiant kernel: Process esd (pid: 558, stackpage=c167d000) 
Aug 29 11:43:59 Defiant kernel: Stack: 00000000 c167e2c0 c18c3680 c3fa97a0 00000000 c18c3680 c3fa97a0 00000070  
Aug 29 11:43:59 Defiant kernel:        00000001 ffffffeb c18c3680 00000002 c118b000 c012d08c c18c3680 c167e2c0  
Aug 29 11:43:59 Defiant kernel:        c167e2c0 c18c3680 00000000 c012c313 c18c3680 c167e2c0 00000000 c118b000  
Aug 29 11:43:59 Defiant kernel: Call Trace: [chrdev_open+64/76] [dentry_open+191/328] [filp_open+82/92] [sys_open+56/180] [system_call+51/56]  
Aug 29 11:43:59 Defiant kernel: Code: 8b 30 85 f6 74 1d 56 e8 93 0e 8f fb 83 c4 04 85 c0 74 1b 8b  
Code;  00000000 Before first symbol
00000000 <_EIP>:
Code;  00000000 Before first symbol
   0:   8b 30                     mov    (%eax),%esi
Code;  00000002 Before first symbol
   2:   85 f6                     test   %esi,%esi
Code;  00000004 Before first symbol
   4:   74 1d                     je     23 <_EIP+0x23> 00000023 Before first symbol
Code;  00000006 Before first symbol
   6:   56                        push   %esi
Code;  00000007 Before first symbol
   7:   e8 93 0e 8f fb            call   fb8f0e9f <_EIP+0xfb8f0e9f> fb8f0e9f <END_OF_CODE+370ad1bf/????>
Code;  0000000c Before first symbol
   c:   83 c4 04                  add    $0x4,%esp
Code;  0000000f Before first symbol
   f:   85 c0                     test   %eax,%eax
Code;  00000011 Before first symbol
  11:   74 1b                     je     2e <_EIP+0x2e> 0000002e Before first symbol
Code;  00000013 Before first symbol
  13:   8b 00                     mov    (%eax),%eax
Aug 29 11:43:59 Defiant kernel: Unable to handle kernel paging request at virtual address c4836320 
Aug 29 11:43:59 Defiant kernel: *pde = 03fa8063 
Aug 29 11:43:59 Defiant kernel: Oops: 0000 
Aug 29 11:43:59 Defiant kernel: CPU:    0 
Aug 29 11:43:59 Defiant kernel: EIP:    0010:[fat:__insmod_fat_S.bss_L2240+70109/56182635] 
Aug 29 11:43:59 Defiant kernel: EFLAGS: 00010282 
Aug 29 11:43:59 Defiant kernel: eax: c4836320   ebx: c365aec0   ecx: 00000003   edx: 00000003 
Aug 29 11:43:59 Defiant kernel: esi: c167e6e0   edi: 00000003   ebp: 00000003   esp: c169df00 
Aug 29 11:43:59 Defiant kernel: ds: 0018   es: 0018   ss: 0018 
Aug 29 11:43:59 Defiant kernel: Process esd (pid: 557, stackpage=c169d000) 
Aug 29 11:43:59 Defiant kernel: Stack: 00000000 c167e6e0 c18c3680 c3fa97a0 00000000 c18c3680 c3fa97a0 00000070  
Aug 29 11:43:59 Defiant kernel:        00000001 ffffffeb c18c3680 00000002 c3f9a000 c012d08c c18c3680 c167e6e0  
Aug 29 11:43:59 Defiant kernel:        c167e6e0 c18c3680 00000000 c012c313 c18c3680 c167e6e0 00000000 c3f9a000  
Aug 29 11:43:59 Defiant kernel: Call Trace: [chrdev_open+64/76] [dentry_open+191/328] [filp_open+82/92] [sys_open+56/180] [system_call+51/56]  
Aug 29 11:43:59 Defiant kernel: Code: 8b 30 85 f6 74 1d 56 e8 93 0e 8f fb 83 c4 04 85 c0 74 1b 8b  
Code;  00000000 Before first symbol
00000000 <_EIP>:
Code;  00000000 Before first symbol
   0:   8b 30                     mov    (%eax),%esi
Code;  00000002 Before first symbol
   2:   85 f6                     test   %esi,%esi
Code;  00000004 Before first symbol
   4:   74 1d                     je     23 <_EIP+0x23> 00000023 Before first symbol
Code;  00000006 Before first symbol
   6:   56                        push   %esi
Code;  00000007 Before first symbol
   7:   e8 93 0e 8f fb            call   fb8f0e9f <_EIP+0xfb8f0e9f> fb8f0e9f <END_OF_CODE+370ad1bf/????>
Code;  0000000c Before first symbol
   c:   83 c4 04                  add    $0x4,%esp
Code;  0000000f Before first symbol
   f:   85 c0                     test   %eax,%eax
Code;  00000011 Before first symbol
  11:   74 1b                     je     2e <_EIP+0x2e> 0000002e Before first symbol
Code;  00000013 Before first symbol
  13:   8b 00                     mov    (%eax),%eax
Aug 29 11:43:59 Defiant kernel: Unable to handle kernel paging request at virtual address c4836320 
Aug 29 11:43:59 Defiant kernel: *pde = 03fa8063 
Aug 29 11:43:59 Defiant kernel: Oops: 0000 
Aug 29 11:43:59 Defiant kernel: CPU:    0 
Aug 29 11:43:59 Defiant kernel: EIP:    0010:[fat:__insmod_fat_S.bss_L2240+70109/56182635] 
Aug 29 11:43:59 Defiant kernel: EFLAGS: 00010282 
Aug 29 11:43:59 Defiant kernel: eax: c4836320   ebx: c365aec0   ecx: 00000003   edx: 00000003 
Aug 29 11:43:59 Defiant kernel: esi: c167e380   edi: 00000003   ebp: 00000003   esp: c1697f00 
Aug 29 11:43:59 Defiant kernel: ds: 0018   es: 0018   ss: 0018 
Aug 29 11:43:59 Defiant kernel: Process esd (pid: 556, stackpage=c1697000) 
Aug 29 11:43:59 Defiant kernel: Stack: 00000000 c167e380 c18c3680 c3fa97a0 00000000 c18c3680 c3fa97a0 00000070  
Aug 29 11:43:59 Defiant kernel:        00000001 ffffffeb c18c3680 00000002 c35c6000 c012d08c c18c3680 c167e380  
Aug 29 11:43:59 Defiant kernel:        c167e380 c18c3680 00000000 c012c313 c18c3680 c167e380 00000000 c35c6000  
Aug 29 11:43:59 Defiant kernel: Call Trace: [chrdev_open+64/76] [dentry_open+191/328] [filp_open+82/92] [sys_open+56/180] [system_call+51/56]  
Aug 29 11:43:59 Defiant kernel: Code: 8b 30 85 f6 74 1d 56 e8 93 0e 8f fb 83 c4 04 85 c0 74 1b 8b  
Code;  00000000 Before first symbol
00000000 <_EIP>:
Code;  00000000 Before first symbol
   0:   8b 30                     mov    (%eax),%esi
Code;  00000002 Before first symbol
   2:   85 f6                     test   %esi,%esi
Code;  00000004 Before first symbol
   4:   74 1d                     je     23 <_EIP+0x23> 00000023 Before first symbol
Code;  00000006 Before first symbol
   6:   56                        push   %esi
Code;  00000007 Before first symbol
   7:   e8 93 0e 8f fb            call   fb8f0e9f <_EIP+0xfb8f0e9f> fb8f0e9f <END_OF_CODE+370ad1bf/????>
Code;  0000000c Before first symbol
   c:   83 c4 04                  add    $0x4,%esp
Code;  0000000f Before first symbol
   f:   85 c0                     test   %eax,%eax
Code;  00000011 Before first symbol
  11:   74 1b                     je     2e <_EIP+0x2e> 0000002e Before first symbol
Code;  00000013 Before first symbol
  13:   8b 00                     mov    (%eax),%eax
Aug 29 11:44:10 Defiant kernel: Unable to handle kernel paging request at virtual address c4836320 
Aug 29 11:44:10 Defiant kernel: *pde = 03fa8063 
Aug 29 11:44:10 Defiant kernel: Oops: 0000 
Aug 29 11:44:10 Defiant kernel: CPU:    0 
Aug 29 11:44:10 Defiant kernel: EIP:    0010:[fat:__insmod_fat_S.bss_L2240+70109/56182635] 
Aug 29 11:44:10 Defiant kernel: EFLAGS: 00010282 
Aug 29 11:44:10 Defiant kernel: eax: c4836320   ebx: c365aec0   ecx: 00000003   edx: 00000003 
Aug 29 11:44:10 Defiant kernel: esi: c1d3e1a0   edi: 00000003   ebp: 00000003   esp: c15b9f00 
Aug 29 11:44:10 Defiant kernel: ds: 0018   es: 0018   ss: 0018 
Aug 29 11:44:10 Defiant kernel: Process esd (pid: 570, stackpage=c15b9000) 
Aug 29 11:44:10 Defiant kernel: Stack: 00000000 c1d3e1a0 c18c3680 c3fa97a0 00000000 c18c3680 c3fa97a0 00000070  
Aug 29 11:44:10 Defiant kernel:        00000001 ffffffeb c18c3680 00000002 c1783000 c012d08c c18c3680 c1d3e1a0  
Aug 29 11:44:10 Defiant kernel:        c1d3e1a0 c18c3680 00000000 c012c313 c18c3680 c1d3e1a0 00000000 c1783000  
Aug 29 11:44:10 Defiant kernel: Call Trace: [chrdev_open+64/76] [dentry_open+191/328] [filp_open+82/92] [sys_open+56/180] [system_call+51/56]  
Aug 29 11:44:10 Defiant kernel: Code: 8b 30 85 f6 74 1d 56 e8 93 0e 8f fb 83 c4 04 85 c0 74 1b 8b  
Code;  00000000 Before first symbol
00000000 <_EIP>:
Code;  00000000 Before first symbol
   0:   8b 30                     mov    (%eax),%esi
Code;  00000002 Before first symbol
   2:   85 f6                     test   %esi,%esi
Code;  00000004 Before first symbol
   4:   74 1d                     je     23 <_EIP+0x23> 00000023 Before first symbol
Code;  00000006 Before first symbol
   6:   56                        push   %esi
Code;  00000007 Before first symbol
   7:   e8 93 0e 8f fb            call   fb8f0e9f <_EIP+0xfb8f0e9f> fb8f0e9f <END_OF_CODE+370ad1bf/????>
Code;  0000000c Before first symbol
   c:   83 c4 04                  add    $0x4,%esp
Code;  0000000f Before first symbol
   f:   85 c0                     test   %eax,%eax
Code;  00000011 Before first symbol
  11:   74 1b                     je     2e <_EIP+0x2e> 0000002e Before first symbol
Code;  00000013 Before first symbol
  13:   8b 00                     mov    (%eax),%eax
Aug 29 11:44:10 Defiant kernel: Unable to handle kernel paging request at virtual address c4836320 
Aug 29 11:44:10 Defiant kernel: *pde = 03fa8063 
Aug 29 11:44:11 Defiant kernel: Oops: 0000 
Aug 29 11:44:11 Defiant kernel: CPU:    0 
Aug 29 11:44:11 Defiant kernel: EIP:    0010:[fat:__insmod_fat_S.bss_L2240+70109/56182635] 
Aug 29 11:44:11 Defiant kernel: EFLAGS: 00010282 
Aug 29 11:44:11 Defiant kernel: eax: c4836320   ebx: c365aec0   ecx: 00000003   edx: 00000003 
Aug 29 11:44:11 Defiant kernel: esi: c1d3e260   edi: 00000003   ebp: 00000003   esp: c15b9f00 
Aug 29 11:44:11 Defiant kernel: ds: 0018   es: 0018   ss: 0018 
Aug 29 11:44:11 Defiant kernel: Process esd (pid: 572, stackpage=c15b9000) 
Aug 29 11:44:11 Defiant kernel: Stack: 00000000 c1d3e260 c18c3680 c3fa97a0 00000000 c18c3680 c3fa97a0 00000070  
Aug 29 11:44:11 Defiant kernel:        00000001 ffffffeb c18c3680 00000002 c17fe000 c012d08c c18c3680 c1d3e260  
Aug 29 11:44:11 Defiant kernel:        c1d3e260 c18c3680 00000000 c012c313 c18c3680 c1d3e260 00000000 c17fe000  
Aug 29 11:44:11 Defiant kernel: Call Trace: [chrdev_open+64/76] [dentry_open+191/328] [filp_open+82/92] [sys_open+56/180] [system_call+51/56]  
Aug 29 11:44:11 Defiant kernel: Code: 8b 30 85 f6 74 1d 56 e8 93 0e 8f fb 83 c4 04 85 c0 74 1b 8b  
Code;  00000000 Before first symbol
00000000 <_EIP>:
Code;  00000000 Before first symbol
   0:   8b 30                     mov    (%eax),%esi
Code;  00000002 Before first symbol
   2:   85 f6                     test   %esi,%esi
Code;  00000004 Before first symbol
   4:   74 1d                     je     23 <_EIP+0x23> 00000023 Before first symbol
Code;  00000006 Before first symbol
   6:   56                        push   %esi
Code;  00000007 Before first symbol
   7:   e8 93 0e 8f fb            call   fb8f0e9f <_EIP+0xfb8f0e9f> fb8f0e9f <END_OF_CODE+370ad1bf/????>
Code;  0000000c Before first symbol
   c:   83 c4 04                  add    $0x4,%esp
Code;  0000000f Before first symbol
   f:   85 c0                     test   %eax,%eax
Code;  00000011 Before first symbol
  11:   74 1b                     je     2e <_EIP+0x2e> 0000002e Before first symbol
Code;  00000013 Before first symbol
  13:   8b 00                     mov    (%eax),%eax
Aug 29 11:44:16 Defiant kernel: Unable to handle kernel paging request at virtual address c4836320 
Aug 29 11:44:16 Defiant kernel: *pde = 03fa8063 
Aug 29 11:44:16 Defiant kernel: Oops: 0000 
Aug 29 11:44:16 Defiant kernel: CPU:    0 
Aug 29 11:44:16 Defiant kernel: EIP:    0010:[fat:__insmod_fat_S.bss_L2240+70109/56182635] 
Aug 29 11:44:16 Defiant kernel: EFLAGS: 00010282 
Aug 29 11:44:16 Defiant kernel: eax: c4836320   ebx: c365aec0   ecx: 00000003   edx: 00000003 
Aug 29 11:44:16 Defiant kernel: esi: c1c79ea0   edi: 00000003   ebp: 00000003   esp: c1491f00 
Aug 29 11:44:16 Defiant kernel: ds: 0018   es: 0018   ss: 0018 
Aug 29 11:44:16 Defiant kernel: Process esd (pid: 578, stackpage=c1491000) 
Aug 29 11:44:16 Defiant kernel: Stack: 00000000 c1c79ea0 c18c3680 c3fa97a0 00000000 c18c3680 c3fa97a0 00000070  
Aug 29 11:44:16 Defiant kernel:        00000001 ffffffeb c18c3680 00000002 c1694000 c012d08c c18c3680 c1c79ea0  
Aug 29 11:44:16 Defiant kernel:        c1c79ea0 c18c3680 00000000 c012c313 c18c3680 c1c79ea0 00000000 c1694000  
Aug 29 11:44:16 Defiant kernel: Call Trace: [chrdev_open+64/76] [dentry_open+191/328] [filp_open+82/92] [sys_open+56/180] [system_call+51/56]  
Aug 29 11:44:16 Defiant kernel: Code: 8b 30 85 f6 74 1d 56 e8 93 0e 8f fb 83 c4 04 85 c0 74 1b 8b  
Code;  00000000 Before first symbol
00000000 <_EIP>:
Code;  00000000 Before first symbol
   0:   8b 30                     mov    (%eax),%esi
Code;  00000002 Before first symbol
   2:   85 f6                     test   %esi,%esi
Code;  00000004 Before first symbol
   4:   74 1d                     je     23 <_EIP+0x23> 00000023 Before first symbol
Code;  00000006 Before first symbol
   6:   56                        push   %esi
Code;  00000007 Before first symbol
   7:   e8 93 0e 8f fb            call   fb8f0e9f <_EIP+0xfb8f0e9f> fb8f0e9f <END_OF_CODE+370ad1bf/????>
Code;  0000000c Before first symbol
   c:   83 c4 04                  add    $0x4,%esp
Code;  0000000f Before first symbol
   f:   85 c0                     test   %eax,%eax
Code;  00000011 Before first symbol
  11:   74 1b                     je     2e <_EIP+0x2e> 0000002e Before first symbol
Code;  00000013 Before first symbol
  13:   8b 00                     mov    (%eax),%eax
Aug 29 11:44:17 Defiant kernel: Unable to handle kernel paging request at virtual address c48411f4 
Aug 29 11:44:17 Defiant kernel: *pde = 03fa8063 
Aug 29 11:44:17 Defiant kernel: Oops: 0000 
Aug 29 11:44:17 Defiant kernel: CPU:    0 
Aug 29 11:44:17 Defiant kernel: EIP:    0010:[vsprintf+494/988] 
Aug 29 11:44:17 Defiant kernel: EFLAGS: 00010297 
Aug 29 11:44:17 Defiant kernel: eax: c48411f4   ebx: ffffffff   ecx: c48411f4   edx: fffffffe 
Aug 29 11:44:17 Defiant kernel: esi: ffffffff   edi: c16af0b2   ebp: c1c57f20   esp: c1c57edc 
Aug 29 11:44:17 Defiant kernel: ds: 0018   es: 0018   ss: 0018 
Aug 29 11:44:17 Defiant kernel: Process xscreensaver (pid: 566, stackpage=c1c57000) 
Aug 29 11:44:17 Defiant kernel: Stack: c16af0b0 c365ae60 000000a0 00000005 0000004e c0225773 00000005 00000000  
Aug 29 11:44:17 Defiant kernel:        0000000a c02205e8 c16af0b0 c02257b7 c1c57f1c c010b5e6 c16af0b0 c02257b4  
Aug 29 11:44:17 Defiant kernel:        c48411f4 c16af0a1 c02257ae c022671e c16af096 c02257a8 00000001 00000000  
Aug 29 11:44:17 Defiant kernel: Call Trace: [stext_lock+13439/15052] [sprintf+20/7456] [stext_lock+13507/15052] [get_irq_list+166/316] [stext_lock+13504/15052] [fat:__insmod_fat_S.bss_L2240+171892/56080852] [stext_lock+13498/15052]  
Aug 29 11:44:17 Defiant kernel: Code: 80 38 00 74 07 40 4a 83 fa ff 75 f4 29 c8 89 c6 8b 44 24 1c  
Code;  00000000 Before first symbol
00000000 <_EIP>:
Code;  00000000 Before first symbol
   0:   80 38 00                  cmpb   $0x0,(%eax)
Code;  00000003 Before first symbol
   3:   74 07                     je     c <_EIP+0xc> 0000000c Before first symbol
Code;  00000005 Before first symbol
   5:   40                        inc    %eax
Code;  00000006 Before first symbol
   6:   4a                        dec    %edx
Code;  00000007 Before first symbol
   7:   83 fa ff                  cmp    $0xffffffff,%edx
Code;  0000000a Before first symbol
   a:   75 f4                     jne    0 <_EIP>
Code;  0000000c Before first symbol
   c:   29 c8                     sub    %ecx,%eax
Code;  0000000e Before first symbol
   e:   89 c6                     mov    %eax,%esi
Code;  00000010 Before first symbol
  10:   8b 44 24 1c               mov    0x1c(%esp,1),%eax
Aug 29 11:44:29 Defiant kernel: Unable to handle kernel paging request at virtual address c4836320 
Aug 29 11:44:29 Defiant kernel: *pde = 03fa8063 
Aug 29 11:44:29 Defiant kernel: Oops: 0000 
Aug 29 11:44:29 Defiant kernel: CPU:    0 
Aug 29 11:44:29 Defiant kernel: EIP:    0010:[fat:__insmod_fat_S.bss_L2240+70109/56182635] 
Aug 29 11:44:29 Defiant kernel: EFLAGS: 00010282 
Aug 29 11:44:29 Defiant kernel: eax: c4836320   ebx: c365aec0   ecx: 00000003   edx: 00000003 
Aug 29 11:44:29 Defiant kernel: esi: c1c0d3e0   edi: 00000003   ebp: 00000003   esp: c0c85f00 
Aug 29 11:44:29 Defiant kernel: ds: 0018   es: 0018   ss: 0018 
Aug 29 11:44:29 Defiant kernel: Process esd (pid: 586, stackpage=c0c85000) 
Aug 29 11:44:29 Defiant kernel: Stack: 00000000 c1c0d3e0 c18c3680 c3fa97a0 00000000 c18c3680 c3fa97a0 00000070  
Aug 29 11:44:29 Defiant kernel:        00000001 ffffffeb c18c3680 00000002 c3f3c000 c012d08c c18c3680 c1c0d3e0  
Aug 29 11:44:29 Defiant kernel:        c1c0d3e0 c18c3680 00000000 c012c313 c18c3680 c1c0d3e0 00000000 c3f3c000  
Aug 29 11:44:29 Defiant kernel: Call Trace: [chrdev_open+64/76] [dentry_open+191/328] [filp_open+82/92] [sys_open+56/180] [system_call+51/56]  
Aug 29 11:44:29 Defiant kernel: Code: 8b 30 85 f6 74 1d 56 e8 93 0e 8f fb 83 c4 04 85 c0 74 1b 8b  
Code;  00000000 Before first symbol
00000000 <_EIP>:
Code;  00000000 Before first symbol
   0:   8b 30                     mov    (%eax),%esi
Code;  00000002 Before first symbol
   2:   85 f6                     test   %esi,%esi
Code;  00000004 Before first symbol
   4:   74 1d                     je     23 <_EIP+0x23> 00000023 Before first symbol
Code;  00000006 Before first symbol
   6:   56                        push   %esi
Code;  00000007 Before first symbol
   7:   e8 93 0e 8f fb            call   fb8f0e9f <_EIP+0xfb8f0e9f> fb8f0e9f <END_OF_CODE+370ad1bf/????>
Code;  0000000c Before first symbol
   c:   83 c4 04                  add    $0x4,%esp
Code;  0000000f Before first symbol
   f:   85 c0                     test   %eax,%eax
Code;  00000011 Before first symbol
  11:   74 1b                     je     2e <_EIP+0x2e> 0000002e Before first symbol
Code;  00000013 Before first symbol
  13:   8b 00                     mov    (%eax),%eax
Aug 29 11:44:30 Defiant kernel: Unable to handle kernel paging request at virtual address c4836320 
Aug 29 11:44:30 Defiant kernel: *pde = 03fa8063 
Aug 29 11:44:30 Defiant kernel: Oops: 0000 
Aug 29 11:44:30 Defiant kernel: CPU:    0 
Aug 29 11:44:30 Defiant kernel: EIP:    0010:[fat:__insmod_fat_S.bss_L2240+70109/56182635] 
Aug 29 11:44:30 Defiant kernel: EFLAGS: 00010282 
Aug 29 11:44:30 Defiant kernel: eax: c4836320   ebx: c365aec0   ecx: 00000003   edx: 00000003 
Aug 29 11:44:30 Defiant kernel: esi: c167ed40   edi: 00000003   ebp: 00000003   esp: c0ed1f00 
Aug 29 11:44:30 Defiant kernel: ds: 0018   es: 0018   ss: 0018 
Aug 29 11:44:30 Defiant kernel: Process esd (pid: 588, stackpage=c0ed1000) 
Aug 29 11:44:30 Defiant kernel: Stack: 00000000 c167ed40 c18c3680 c3fa97a0 00000000 c18c3680 c3fa97a0 00000070  
Aug 29 11:44:31 Defiant kernel:        00000001 ffffffeb c18c3680 00000002 c1795000 c012d08c c18c3680 c167ed40  
Aug 29 11:44:31 Defiant kernel:        c167ed40 c18c3680 00000000 c012c313 c18c3680 c167ed40 00000000 c1795000  
Aug 29 11:44:31 Defiant kernel: Call Trace: [chrdev_open+64/76] [dentry_open+191/328] [filp_open+82/92] [sys_open+56/180] [system_call+51/56]  
Aug 29 11:44:31 Defiant kernel: Code: 8b 30 85 f6 74 1d 56 e8 93 0e 8f fb 83 c4 04 85 c0 74 1b 8b  
Code;  00000000 Before first symbol
00000000 <_EIP>:
Code;  00000000 Before first symbol
   0:   8b 30                     mov    (%eax),%esi
Code;  00000002 Before first symbol
   2:   85 f6                     test   %esi,%esi
Code;  00000004 Before first symbol
   4:   74 1d                     je     23 <_EIP+0x23> 00000023 Before first symbol
Code;  00000006 Before first symbol
   6:   56                        push   %esi
Code;  00000007 Before first symbol
   7:   e8 93 0e 8f fb            call   fb8f0e9f <_EIP+0xfb8f0e9f> fb8f0e9f <END_OF_CODE+370ad1bf/????>
Code;  0000000c Before first symbol
   c:   83 c4 04                  add    $0x4,%esp
Code;  0000000f Before first symbol
   f:   85 c0                     test   %eax,%eax
Code;  00000011 Before first symbol
  11:   74 1b                     je     2e <_EIP+0x2e> 0000002e Before first symbol
Code;  00000013 Before first symbol
  13:   8b 00                     mov    (%eax),%eax
Aug 29 11:44:32 Defiant kernel: Unable to handle kernel paging request at virtual address c48411f4 
Aug 29 11:44:32 Defiant kernel: *pde = 03fa8063 
Aug 29 11:44:32 Defiant kernel: Oops: 0000 
Aug 29 11:44:32 Defiant kernel: CPU:    0 
Aug 29 11:44:32 Defiant kernel: EIP:    0010:[vsprintf+494/988] 
Aug 29 11:44:32 Defiant kernel: EFLAGS: 00010297 
Aug 29 11:44:32 Defiant kernel: eax: c48411f4   ebx: ffffffff   ecx: c48411f4   edx: fffffffe 
Aug 29 11:44:32 Defiant kernel: esi: ffffffff   edi: c0e9d0b2   ebp: c1a31f20   esp: c1a31edc 
Aug 29 11:44:32 Defiant kernel: ds: 0018   es: 0018   ss: 0018 
Aug 29 11:44:32 Defiant kernel: Process xscreensaver (pid: 580, stackpage=c1a31000) 
Aug 29 11:44:32 Defiant kernel: Stack: c0e9d0b0 c365ae60 000000a0 00000005 0000004e c0225773 00000005 00000000  
Aug 29 11:44:32 Defiant kernel:        0000000a c02205e8 c0e9d0b0 c02257b7 c1a31f1c c010b5e6 c0e9d0b0 c02257b4  
Aug 29 11:44:32 Defiant kernel:        c48411f4 c0e9d0a1 c02257ae c022671e c0e9d096 c02257a8 00000001 00000000  
Aug 29 11:44:32 Defiant kernel: Call Trace: [stext_lock+13439/15052] [sprintf+20/7456] [stext_lock+13507/15052] [get_irq_list+166/316] [stext_lock+13504/15052] [fat:__insmod_fat_S.bss_L2240+171892/56080852] [stext_lock+13498/15052]  
Aug 29 11:44:32 Defiant kernel: Code: 80 38 00 74 07 40 4a 83 fa ff 75 f4 29 c8 89 c6 8b 44 24 1c  
Code;  00000000 Before first symbol
00000000 <_EIP>:
Code;  00000000 Before first symbol
   0:   80 38 00                  cmpb   $0x0,(%eax)
Code;  00000003 Before first symbol
   3:   74 07                     je     c <_EIP+0xc> 0000000c Before first symbol
Code;  00000005 Before first symbol
   5:   40                        inc    %eax
Code;  00000006 Before first symbol
   6:   4a                        dec    %edx
Code;  00000007 Before first symbol
   7:   83 fa ff                  cmp    $0xffffffff,%edx
Code;  0000000a Before first symbol
   a:   75 f4                     jne    0 <_EIP>
Code;  0000000c Before first symbol
   c:   29 c8                     sub    %ecx,%eax
Code;  0000000e Before first symbol
   e:   89 c6                     mov    %eax,%esi
Code;  00000010 Before first symbol
  10:   8b 44 24 1c               mov    0x1c(%esp,1),%eax
Aug 29 11:44:36 Defiant kernel: Unable to handle kernel paging request at virtual address c4836320 
Aug 29 11:44:36 Defiant kernel: *pde = 03fa8063 
Aug 29 11:44:36 Defiant kernel: Oops: 0000 
Aug 29 11:44:36 Defiant kernel: CPU:    0 
Aug 29 11:44:36 Defiant kernel: EIP:    0010:[fat:__insmod_fat_S.bss_L2240+70109/56182635] 
Aug 29 11:44:36 Defiant kernel: EFLAGS: 00010282 
Aug 29 11:44:36 Defiant kernel: eax: c4836320   ebx: c365aec0   ecx: 00000003   edx: 00000003 
Aug 29 11:44:36 Defiant kernel: esi: c15e1420   edi: 00000003   ebp: 00000003   esp: c0b69f00 
Aug 29 11:44:36 Defiant kernel: ds: 0018   es: 0018   ss: 0018 
Aug 29 11:44:36 Defiant kernel: Process esd (pid: 600, stackpage=c0b69000) 
Aug 29 11:44:37 Defiant kernel: Stack: 00000000 c15e1420 c18c3680 c3fa97a0 00000000 c18c3680 c3fa97a0 00000070  
Aug 29 11:44:37 Defiant kernel:        00000001 ffffffeb c18c3680 00000002 c0aa8000 c012d08c c18c3680 c15e1420  
Aug 29 11:44:37 Defiant kernel:        c15e1420 c18c3680 00000000 c012c313 c18c3680 c15e1420 00000000 c0aa8000  
Aug 29 11:44:37 Defiant kernel: Call Trace: [chrdev_open+64/76] [dentry_open+191/328] [filp_open+82/92] [sys_open+56/180] [system_call+51/56]  
Aug 29 11:44:37 Defiant kernel: Code: 8b 30 85 f6 74 1d 56 e8 93 0e 8f fb 83 c4 04 85 c0 74 1b 8b  
Code;  00000000 Before first symbol
00000000 <_EIP>:
Code;  00000000 Before first symbol
   0:   8b 30                     mov    (%eax),%esi
Code;  00000002 Before first symbol
   2:   85 f6                     test   %esi,%esi
Code;  00000004 Before first symbol
   4:   74 1d                     je     23 <_EIP+0x23> 00000023 Before first symbol
Code;  00000006 Before first symbol
   6:   56                        push   %esi
Code;  00000007 Before first symbol
   7:   e8 93 0e 8f fb            call   fb8f0e9f <_EIP+0xfb8f0e9f> fb8f0e9f <END_OF_CODE+370ad1bf/????>
Code;  0000000c Before first symbol
   c:   83 c4 04                  add    $0x4,%esp
Code;  0000000f Before first symbol
   f:   85 c0                     test   %eax,%eax
Code;  00000011 Before first symbol
  11:   74 1b                     je     2e <_EIP+0x2e> 0000002e Before first symbol
Code;  00000013 Before first symbol
  13:   8b 00                     mov    (%eax),%eax
Aug 29 11:44:37 Defiant kernel: Unable to handle kernel paging request at virtual address c4836320 
Aug 29 11:44:37 Defiant kernel: *pde = 03fa8063 
Aug 29 11:44:37 Defiant kernel: Oops: 0000 
Aug 29 11:44:37 Defiant kernel: CPU:    0 
Aug 29 11:44:37 Defiant kernel: EIP:    0010:[fat:__insmod_fat_S.bss_L2240+70109/56182635] 
Aug 29 11:44:37 Defiant kernel: EFLAGS: 00010282 
Aug 29 11:44:37 Defiant kernel: eax: c4836320   ebx: c365aec0   ecx: 00000003   edx: 00000003 
Aug 29 11:44:37 Defiant kernel: esi: c08f43c0   edi: 00000003   ebp: 00000003   esp: c08ebf00 
Aug 29 11:44:37 Defiant kernel: ds: 0018   es: 0018   ss: 0018 
Aug 29 11:44:37 Defiant kernel: Process esd (pid: 604, stackpage=c08eb000) 
Aug 29 11:44:37 Defiant kernel: Stack: 00000000 c08f43c0 c18c3680 c3fa97a0 00000000 c18c3680 c3fa97a0 00000070  
Aug 29 11:44:37 Defiant kernel:        00000001 ffffffeb c18c3680 00000002 c1593000 c012d08c c18c3680 c08f43c0  
Aug 29 11:44:37 Defiant kernel:        c08f43c0 c18c3680 00000000 c012c313 c18c3680 c08f43c0 00000000 c1593000  
Aug 29 11:44:37 Defiant kernel: Call Trace: [chrdev_open+64/76] [dentry_open+191/328] [filp_open+82/92] [sys_open+56/180] [system_call+51/56]  
Aug 29 11:44:37 Defiant kernel: Code: 8b 30 85 f6 74 1d 56 e8 93 0e 8f fb 83 c4 04 85 c0 74 1b 8b  
Code;  00000000 Before first symbol
00000000 <_EIP>:
Code;  00000000 Before first symbol
   0:   8b 30                     mov    (%eax),%esi
Code;  00000002 Before first symbol
   2:   85 f6                     test   %esi,%esi
Code;  00000004 Before first symbol
   4:   74 1d                     je     23 <_EIP+0x23> 00000023 Before first symbol
Code;  00000006 Before first symbol
   6:   56                        push   %esi
Code;  00000007 Before first symbol
   7:   e8 93 0e 8f fb            call   fb8f0e9f <_EIP+0xfb8f0e9f> fb8f0e9f <END_OF_CODE+370ad1bf/????>
Code;  0000000c Before first symbol
   c:   83 c4 04                  add    $0x4,%esp
Code;  0000000f Before first symbol
   f:   85 c0                     test   %eax,%eax
Code;  00000011 Before first symbol
  11:   74 1b                     je     2e <_EIP+0x2e> 0000002e Before first symbol
Code;  00000013 Before first symbol
  13:   8b 00                     mov    (%eax),%eax
Aug 29 11:44:37 Defiant kernel: Unable to handle kernel paging request at virtual address c4836320 
Aug 29 11:44:37 Defiant kernel: *pde = 03fa8063 
Aug 29 11:44:37 Defiant kernel: Oops: 0000 
Aug 29 11:44:37 Defiant kernel: CPU:    0 
Aug 29 11:44:37 Defiant kernel: EIP:    0010:[fat:__insmod_fat_S.bss_L2240+70109/56182635] 
Aug 29 11:44:37 Defiant kernel: EFLAGS: 00010282 
Aug 29 11:44:37 Defiant kernel: eax: c4836320   ebx: c365aec0   ecx: 00000003   edx: 00000003 
Aug 29 11:44:37 Defiant kernel: esi: c08f42a0   edi: 00000003   ebp: 00000003   esp: c0bddf00 
Aug 29 11:44:37 Defiant kernel: ds: 0018   es: 0018   ss: 0018 
Aug 29 11:44:37 Defiant kernel: Process esd (pid: 602, stackpage=c0bdd000) 
Aug 29 11:44:37 Defiant kernel: Stack: 00000000 c08f42a0 c18c3680 c3fa97a0 00000000 c18c3680 c3fa97a0 00000070  
Aug 29 11:44:37 Defiant kernel:        00000001 ffffffeb c18c3680 00000002 c130b000 c012d08c c18c3680 c08f42a0  
Aug 29 11:44:37 Defiant kernel:        c08f42a0 c18c3680 00000000 c012c313 c18c3680 c08f42a0 00000000 c130b000  
Aug 29 11:44:37 Defiant kernel: Call Trace: [chrdev_open+64/76] [dentry_open+191/328] [filp_open+82/92] [sys_open+56/180] [system_call+51/56]  
Aug 29 11:44:37 Defiant kernel: Code: 8b 30 85 f6 74 1d 56 e8 93 0e 8f fb 83 c4 04 85 c0 74 1b 8b  
Code;  00000000 Before first symbol
00000000 <_EIP>:
Code;  00000000 Before first symbol
   0:   8b 30                     mov    (%eax),%esi
Code;  00000002 Before first symbol
   2:   85 f6                     test   %esi,%esi
Code;  00000004 Before first symbol
   4:   74 1d                     je     23 <_EIP+0x23> 00000023 Before first symbol
Code;  00000006 Before first symbol
   6:   56                        push   %esi
Code;  00000007 Before first symbol
   7:   e8 93 0e 8f fb            call   fb8f0e9f <_EIP+0xfb8f0e9f> fb8f0e9f <END_OF_CODE+370ad1bf/????>
Code;  0000000c Before first symbol
   c:   83 c4 04                  add    $0x4,%esp
Code;  0000000f Before first symbol
   f:   85 c0                     test   %eax,%eax
Code;  00000011 Before first symbol
  11:   74 1b                     je     2e <_EIP+0x2e> 0000002e Before first symbol
Code;  00000013 Before first symbol
  13:   8b 00                     mov    (%eax),%eax
Aug 29 11:44:37 Defiant kernel: Unable to handle kernel paging request at virtual address c4836320 
Aug 29 11:44:37 Defiant kernel: *pde = 03fa8063 
Aug 29 11:44:37 Defiant kernel: Oops: 0000 
Aug 29 11:44:37 Defiant kernel: CPU:    0 
Aug 29 11:44:37 Defiant kernel: EIP:    0010:[fat:__insmod_fat_S.bss_L2240+70109/56182635] 
Aug 29 11:44:37 Defiant kernel: EFLAGS: 00010282 
Aug 29 11:44:37 Defiant kernel: eax: c4836320   ebx: c365aec0   ecx: 00000003   edx: 00000003 
Aug 29 11:44:37 Defiant kernel: esi: c08f41e0   edi: 00000003   ebp: 00000003   esp: c0bddf00 
Aug 29 11:44:37 Defiant kernel: ds: 0018   es: 0018   ss: 0018 
Aug 29 11:44:37 Defiant kernel: Process esd (pid: 606, stackpage=c0bdd000) 
Aug 29 11:44:37 Defiant kernel: Stack: 00000000 c08f41e0 c18c3680 c3fa97a0 00000000 c18c3680 c3fa97a0 00000070  
Aug 29 11:44:37 Defiant kernel:        00000001 ffffffeb c18c3680 00000002 c0ac5000 c012d08c c18c3680 c08f41e0  
Aug 29 11:44:37 Defiant kernel:        c08f41e0 c18c3680 00000000 c012c313 c18c3680 c08f41e0 00000000 c0ac5000  
Aug 29 11:44:37 Defiant kernel: Call Trace: [chrdev_open+64/76] [dentry_open+191/328] [filp_open+82/92] [sys_open+56/180] [system_call+51/56]  
Aug 29 11:44:37 Defiant kernel: Code: 8b 30 85 f6 74 1d 56 e8 93 0e 8f fb 83 c4 04 85 c0 74 1b 8b  
Code;  00000000 Before first symbol
00000000 <_EIP>:
Code;  00000000 Before first symbol
   0:   8b 30                     mov    (%eax),%esi
Code;  00000002 Before first symbol
   2:   85 f6                     test   %esi,%esi
Code;  00000004 Before first symbol
   4:   74 1d                     je     23 <_EIP+0x23> 00000023 Before first symbol
Code;  00000006 Before first symbol
   6:   56                        push   %esi
Code;  00000007 Before first symbol
   7:   e8 93 0e 8f fb            call   fb8f0e9f <_EIP+0xfb8f0e9f> fb8f0e9f <END_OF_CODE+370ad1bf/????>
Code;  0000000c Before first symbol
   c:   83 c4 04                  add    $0x4,%esp
Code;  0000000f Before first symbol
   f:   85 c0                     test   %eax,%eax
Code;  00000011 Before first symbol
  11:   74 1b                     je     2e <_EIP+0x2e> 0000002e Before first symbol
Code;  00000013 Before first symbol
  13:   8b 00                     mov    (%eax),%eax
Aug 29 11:44:47 Defiant kernel: Unable to handle kernel paging request at virtual address c4836320 
Aug 29 11:44:47 Defiant kernel: *pde = 03fa8063 
Aug 29 11:44:47 Defiant kernel: Oops: 0000 
Aug 29 11:44:47 Defiant kernel: CPU:    0 
Aug 29 11:44:47 Defiant kernel: EIP:    0010:[fat:__insmod_fat_S.bss_L2240+70109/56182635] 
Aug 29 11:44:47 Defiant kernel: EFLAGS: 00010282 
Aug 29 11:44:47 Defiant kernel: eax: c4836320   ebx: c365aea0   ecx: 00000000   edx: 00000000 
Aug 29 11:44:47 Defiant kernel: esi: c0628920   edi: 00000000   ebp: 00000000   esp: c0acdf00 
Aug 29 11:44:47 Defiant kernel: ds: 0018   es: 0018   ss: 0018 
Aug 29 11:44:47 Defiant kernel: Process mixer_applet (pid: 596, stackpage=c0acd000) 
Aug 29 11:44:47 Defiant kernel: Stack: 00000000 c0628920 c18be9a0 c3fa97a0 00000000 c18be9a0 c3fa97a0 00000070  
Aug 29 11:44:47 Defiant kernel:        00000001 ffffffeb c18be9a0 00000003 c0e20000 c012d08c c18be9a0 c0628920  
Aug 29 11:44:47 Defiant kernel:        c0628920 c18be9a0 00000000 c012c313 c18be9a0 c0628920 00000000 c0e20000  
Aug 29 11:44:47 Defiant kernel: Call Trace: [chrdev_open+64/76] [dentry_open+191/328] [filp_open+82/92] [sys_open+56/180] [system_call+51/56]  
Aug 29 11:44:47 Defiant kernel: Code: 8b 30 85 f6 74 1d 56 e8 93 0e 8f fb 83 c4 04 85 c0 74 1b 8b  
Code;  00000000 Before first symbol
00000000 <_EIP>:
Code;  00000000 Before first symbol
   0:   8b 30                     mov    (%eax),%esi
Code;  00000002 Before first symbol
   2:   85 f6                     test   %esi,%esi
Code;  00000004 Before first symbol
   4:   74 1d                     je     23 <_EIP+0x23> 00000023 Before first symbol
Code;  00000006 Before first symbol
   6:   56                        push   %esi
Code;  00000007 Before first symbol
   7:   e8 93 0e 8f fb            call   fb8f0e9f <_EIP+0xfb8f0e9f> fb8f0e9f <END_OF_CODE+370ad1bf/????>
Code;  0000000c Before first symbol
   c:   83 c4 04                  add    $0x4,%esp
Code;  0000000f Before first symbol
   f:   85 c0                     test   %eax,%eax
Code;  00000011 Before first symbol
  11:   74 1b                     je     2e <_EIP+0x2e> 0000002e Before first symbol
Code;  00000013 Before first symbol
  13:   8b 00                     mov    (%eax),%eax
Aug 29 11:44:47 Defiant kernel: Unable to handle kernel paging request at virtual address c4836320 
Aug 29 11:44:47 Defiant kernel: *pde = 03fa8063 
Aug 29 11:44:47 Defiant kernel: Oops: 0000 
Aug 29 11:44:47 Defiant kernel: CPU:    0 
Aug 29 11:44:47 Defiant kernel: EIP:    0010:[fat:__insmod_fat_S.bss_L2240+70109/56182635] 
Aug 29 11:44:47 Defiant kernel: EFLAGS: 00010282 
Aug 29 11:44:47 Defiant kernel: eax: c4836320   ebx: c365aec0   ecx: 00000003   edx: 00000003 
Aug 29 11:44:47 Defiant kernel: esi: c05a00c0   edi: 00000003   ebp: 00000003   esp: c05b5f00 
Aug 29 11:44:47 Defiant kernel: ds: 0018   es: 0018   ss: 0018 
Aug 29 11:44:47 Defiant kernel: Process esd (pid: 619, stackpage=c05b5000) 
Aug 29 11:44:47 Defiant kernel: Stack: 00000000 c05a00c0 c18c3680 c3fa97a0 00000000 c18c3680 c3fa97a0 00000070  
Aug 29 11:44:47 Defiant kernel:        00000001 ffffffeb c18c3680 00000002 c0aca000 c012d08c c18c3680 c05a00c0  
Aug 29 11:44:47 Defiant kernel:        c05a00c0 c18c3680 00000000 c012c313 c18c3680 c05a00c0 00000000 c0aca000  
Aug 29 11:44:47 Defiant kernel: Call Trace: [chrdev_open+64/76] [dentry_open+191/328] [filp_open+82/92] [sys_open+56/180] [system_call+51/56]  
Aug 29 11:44:47 Defiant kernel: Code: 8b 30 85 f6 74 1d 56 e8 93 0e 8f fb 83 c4 04 85 c0 74 1b 8b  
Code;  00000000 Before first symbol
00000000 <_EIP>:
Code;  00000000 Before first symbol
   0:   8b 30                     mov    (%eax),%esi
Code;  00000002 Before first symbol
   2:   85 f6                     test   %esi,%esi
Code;  00000004 Before first symbol
   4:   74 1d                     je     23 <_EIP+0x23> 00000023 Before first symbol
Code;  00000006 Before first symbol
   6:   56                        push   %esi
Code;  00000007 Before first symbol
   7:   e8 93 0e 8f fb            call   fb8f0e9f <_EIP+0xfb8f0e9f> fb8f0e9f <END_OF_CODE+370ad1bf/????>
Code;  0000000c Before first symbol
   c:   83 c4 04                  add    $0x4,%esp
Code;  0000000f Before first symbol
   f:   85 c0                     test   %eax,%eax
Code;  00000011 Before first symbol
  11:   74 1b                     je     2e <_EIP+0x2e> 0000002e Before first symbol
Code;  00000013 Before first symbol
  13:   8b 00                     mov    (%eax),%eax
Aug 29 11:44:58 Defiant kernel: Unable to handle kernel paging request at virtual address c4836320 
Aug 29 11:44:58 Defiant kernel: *pde = 03fa8063 
Aug 29 11:44:58 Defiant kernel: Oops: 0000 
Aug 29 11:44:58 Defiant kernel: CPU:    0 
Aug 29 11:44:58 Defiant kernel: EIP:    0010:[fat:__insmod_fat_S.bss_L2240+70109/56182635] 
Aug 29 11:44:58 Defiant kernel: EFLAGS: 00010282 
Aug 29 11:44:58 Defiant kernel: eax: c4836320   ebx: c365aec0   ecx: 00000003   edx: 00000003 
Aug 29 11:44:58 Defiant kernel: esi: c053f9e0   edi: 00000003   ebp: 00000003   esp: c34aff00 
Aug 29 11:44:58 Defiant kernel: ds: 0018   es: 0018   ss: 0018 
Aug 29 11:44:58 Defiant kernel: Process esd (pid: 628, stackpage=c34af000) 
Aug 29 11:44:58 Defiant kernel: Stack: 00000000 c053f9e0 c18c3680 c3fa97a0 00000000 c18c3680 c3fa97a0 00000070  
Aug 29 11:44:58 Defiant kernel:        00000001 ffffffeb c18c3680 00000002 c34f0000 c012d08c c18c3680 c053f9e0  
Aug 29 11:44:58 Defiant kernel:        c053f9e0 c18c3680 00000000 c012c313 c18c3680 c053f9e0 00000000 c34f0000  
Aug 29 11:44:58 Defiant kernel: Call Trace: [chrdev_open+64/76] [dentry_open+191/328] [filp_open+82/92] [sys_open+56/180] [system_call+51/56]  
Aug 29 11:44:58 Defiant kernel: Code: 8b 30 85 f6 74 1d 56 e8 93 0e 8f fb 83 c4 04 85 c0 74 1b 8b  
Code;  00000000 Before first symbol
00000000 <_EIP>:
Code;  00000000 Before first symbol
   0:   8b 30                     mov    (%eax),%esi
Code;  00000002 Before first symbol
   2:   85 f6                     test   %esi,%esi
Code;  00000004 Before first symbol
   4:   74 1d                     je     23 <_EIP+0x23> 00000023 Before first symbol
Code;  00000006 Before first symbol
   6:   56                        push   %esi
Code;  00000007 Before first symbol
   7:   e8 93 0e 8f fb            call   fb8f0e9f <_EIP+0xfb8f0e9f> fb8f0e9f <END_OF_CODE+370ad1bf/????>
Code;  0000000c Before first symbol
   c:   83 c4 04                  add    $0x4,%esp
Code;  0000000f Before first symbol
   f:   85 c0                     test   %eax,%eax
Code;  00000011 Before first symbol
  11:   74 1b                     je     2e <_EIP+0x2e> 0000002e Before first symbol
Code;  00000013 Before first symbol
  13:   8b 00                     mov    (%eax),%eax
Aug 29 11:44:58 Defiant kernel: Unable to handle kernel paging request at virtual address c4836320 
Aug 29 11:44:58 Defiant kernel: *pde = 03fa8063 
Aug 29 11:44:58 Defiant kernel: Oops: 0000 
Aug 29 11:44:58 Defiant kernel: CPU:    0 
Aug 29 11:44:58 Defiant kernel: EIP:    0010:[fat:__insmod_fat_S.bss_L2240+70109/56182635] 
Aug 29 11:44:58 Defiant kernel: EFLAGS: 00010282 
Aug 29 11:44:58 Defiant kernel: eax: c4836320   ebx: c365aec0   ecx: 00000003   edx: 00000003 
Aug 29 11:44:58 Defiant kernel: esi: c053fbc0   edi: 00000003   ebp: 00000003   esp: c34aff00 
Aug 29 11:44:58 Defiant kernel: ds: 0018   es: 0018   ss: 0018 
Aug 29 11:44:58 Defiant kernel: Process esd (pid: 631, stackpage=c34af000) 
Aug 29 11:44:58 Defiant kernel: Stack: 00000000 c053fbc0 c18c3680 c3fa97a0 00000000 c18c3680 c3fa97a0 00000070  
Aug 29 11:44:58 Defiant kernel:        00000001 ffffffeb c18c3680 00000002 c3674000 c012d08c c18c3680 c053fbc0  
Aug 29 11:44:58 Defiant kernel:        c053fbc0 c18c3680 00000000 c012c313 c18c3680 c053fbc0 00000000 c3674000  
Aug 29 11:44:58 Defiant kernel: Call Trace: [chrdev_open+64/76] [dentry_open+191/328] [filp_open+82/92] [sys_open+56/180] [system_call+51/56]  
Aug 29 11:44:58 Defiant kernel: Code: 8b 30 85 f6 74 1d 56 e8 93 0e 8f fb 83 c4 04 85 c0 74 1b 8b  
Code;  00000000 Before first symbol
00000000 <_EIP>:
Code;  00000000 Before first symbol
   0:   8b 30                     mov    (%eax),%esi
Code;  00000002 Before first symbol
   2:   85 f6                     test   %esi,%esi
Code;  00000004 Before first symbol
   4:   74 1d                     je     23 <_EIP+0x23> 00000023 Before first symbol
Code;  00000006 Before first symbol
   6:   56                        push   %esi
Code;  00000007 Before first symbol
   7:   e8 93 0e 8f fb            call   fb8f0e9f <_EIP+0xfb8f0e9f> fb8f0e9f <END_OF_CODE+370ad1bf/????>
Code;  0000000c Before first symbol
   c:   83 c4 04                  add    $0x4,%esp
Code;  0000000f Before first symbol
   f:   85 c0                     test   %eax,%eax
Code;  00000011 Before first symbol
  11:   74 1b                     je     2e <_EIP+0x2e> 0000002e Before first symbol
Code;  00000013 Before first symbol
  13:   8b 00                     mov    (%eax),%eax
Aug 29 11:44:58 Defiant kernel: Unable to handle kernel paging request at virtual address c4836320 
Aug 29 11:44:58 Defiant kernel: *pde = 03fa8063 
Aug 29 11:44:58 Defiant kernel: Oops: 0000 
Aug 29 11:44:58 Defiant kernel: CPU:    0 
Aug 29 11:44:58 Defiant kernel: EIP:    0010:[fat:__insmod_fat_S.bss_L2240+70109/56182635] 
Aug 29 11:44:58 Defiant kernel: EFLAGS: 00010282 
Aug 29 11:44:58 Defiant kernel: eax: c4836320   ebx: c365aec0   ecx: 00000003   edx: 00000003 
Aug 29 11:44:58 Defiant kernel: esi: c053faa0   edi: 00000003   ebp: 00000003   esp: c3233f00 
Aug 29 11:44:58 Defiant kernel: ds: 0018   es: 0018   ss: 0018 
Aug 29 11:44:58 Defiant kernel: Process esd (pid: 632, stackpage=c3233000) 
Aug 29 11:44:58 Defiant kernel: Stack: 00000000 c053faa0 c18c3680 c3fa97a0 00000000 c18c3680 c3fa97a0 00000070  
Aug 29 11:44:58 Defiant kernel:        00000001 ffffffeb c18c3680 00000002 c362f000 c012d08c c18c3680 c053faa0  
Aug 29 11:44:58 Defiant kernel:        c053faa0 c18c3680 00000000 c012c313 c18c3680 c053faa0 00000000 c362f000  
Aug 29 11:44:58 Defiant kernel: Call Trace: [chrdev_open+64/76] [dentry_open+191/328] [filp_open+82/92] [sys_open+56/180] [system_call+51/56]  
Aug 29 11:44:58 Defiant kernel: Code: 8b 30 85 f6 74 1d 56 e8 93 0e 8f fb 83 c4 04 85 c0 74 1b 8b  
Code;  00000000 Before first symbol
00000000 <_EIP>:
Code;  00000000 Before first symbol
   0:   8b 30                     mov    (%eax),%esi
Code;  00000002 Before first symbol
   2:   85 f6                     test   %esi,%esi
Code;  00000004 Before first symbol
   4:   74 1d                     je     23 <_EIP+0x23> 00000023 Before first symbol
Code;  00000006 Before first symbol
   6:   56                        push   %esi
Code;  00000007 Before first symbol
   7:   e8 93 0e 8f fb            call   fb8f0e9f <_EIP+0xfb8f0e9f> fb8f0e9f <END_OF_CODE+370ad1bf/????>
Code;  0000000c Before first symbol
   c:   83 c4 04                  add    $0x4,%esp
Code;  0000000f Before first symbol
   f:   85 c0                     test   %eax,%eax
Code;  00000011 Before first symbol
  11:   74 1b                     je     2e <_EIP+0x2e> 0000002e Before first symbol
Code;  00000013 Before first symbol
  13:   8b 00                     mov    (%eax),%eax
1 warning issued.  Results may not be reliable.