Date: Fri, 31 Dec 1999 10:39:53 +0700
From: Agus Budy Wuysang <>
Subject: Oopses trace report... (repost, wrong attachment format, sorry!)
Sender: linux-kernel-owner@vger.kernel.org
Precedence: bulk
List-ID: <linux-kernel.vger.kernel.org>
X-Mailing-List: linux-kernel@vger.kernel.org
X-Lkml-Link: https://lkml.org/lkml/1999/12/30/154

- Kernel 2.2.13
- Linux Redhat 5.1 distro
- gcc 2.7.2.3 RPM-11
- binutils 2.9.1.0.4 RPM-2
- glibc 2.0.7 RPM-19
- Non standard kernel module: ibcs-2.1-981105 (required to run
Progress V7.C08 SCO COFF binary)
-- 
+---| Netscape Communicator 4.x |---| Powered by Linux 2.2.x |---+
|/v\ Agus Budy Wuysang                   MIS Department          |
| |  Phone:  +62-21-344-1316 ext 317     GSM: +62-816-1972-051   |
+--------| 
http://www.rad.net.id/users/personal/s/supes
 |--------+ksymoops 0.7c on i686 2.2.13.  Options used
     -V (default)
     -k /proc/ksyms (default)
     -l /proc/modules (default)
     -o /lib/modules/2.2.13/ (default)
     -m /usr/src/linux/System.map (default)
Warning: You did not tell me where to find symbol information.  I will
assume that the log matches the kernel and modules that are running
right now and I'll use the default options above for symbol resolution.
If the current kernel and/or modules do not match the log, you can get
more accurate output by telling me the kernel version and where to find
map, modules, ksyms etc.  ksymoops -h explains the options.
Warning (compare_ksyms_lsmod): module 3c59x is in lsmod but not in ksyms, probably no symbols exported
Warning (compare_ksyms_lsmod): module iBCS is in lsmod but not in ksyms, probably no symbols exported
Dec  3 20:13:09 symixsrv kernel: Unable to handle kernel NULL pointer dereference at virtual address 00000008
Dec  3 20:13:09 symixsrv kernel: current->tss.cr3 = 2a60d000, pr3 = 2a60d000
Dec  3 20:13:09 symixsrv kernel: *pde = 00000000
Dec  3 20:13:09 symixsrv kernel: Oops: 0000
Dec  3 20:13:09 symixsrv kernel: CPU:    0
Dec  3 20:13:09 symixsrv kernel: EIP:    0010:[<c013333e>]
Using defaults from ksymoops -t elf32-i386 -a i386
Dec  3 20:13:09 symixsrv kernel: EFLAGS: 00010286
Dec  3 20:13:09 symixsrv kernel: eax: 00000000   ebx: cb33f480   ecx: cb33f480   edx: cb33f480
Dec  3 20:13:09 symixsrv kernel: esi: 00000000   edi: cb33f480   ebp: 00000000   esp: ea8b9c04
Dec  3 20:13:09 symixsrv kernel: ds: 0018   es: 0018   ss: 0018
Dec  3 20:13:09 symixsrv kernel: Process bash (pid: 22621, process nr: 58, stackpage=ea8b9000)
Dec  3 20:13:09 symixsrv kernel: Stack: cb33f480 00000000 00000001 00000000 00000001 00000000 00000000 00000000 
Dec  3 20:13:09 symixsrv kernel:        00000060 ffffffea fbe2dba0 fb033980 00000000 cb33f480 00000000 cb33f480 
Dec  3 20:13:09 symixsrv kernel:        c0136a37 cb33f480 c01292a5 cb33f480 fb033980 c0136b04 cb33f480 c65419c0 
Dec  3 20:13:09 symixsrv kernel: Call Trace: [<c0136a37>] [<c01292a5>] [<c0136b04>] [<c0137405>] [<c0135da1>] [<c011fe2e>] [<c012e91b>] 
Dec  3 20:13:09 symixsrv kernel:        [<c012eb87>] [<c012eba9>] [<fc85d822>] [<fc85d7c0>] [<fc85c2c3>] [<c01094cd>] [<c010937a>] 
Dec  3 20:13:09 symixsrv kernel: Code: 8b 40 08 89 44 24 10 8b 6c 24 10 83 c5 70 8b 54 24 10 8b 72 
>>EIP; c013333e <locks_remove_flock+e/90>   <=====
Trace; c0136a37 <load_elf_interp+1c7/2bc>
Trace; c01292a5 <fput+11/48>
Trace; c0136b04 <load_elf_interp+294/2bc>
Trace; c0137405 <load_elf_binary+7dd/b60>
Trace; c0135da1 <update_atime+5d/64>
Trace; c011fe2e <do_generic_file_read+5f6/604>
Trace; c012e91b <search_binary_handler+3b/120>
Trace; c012eb87 <do_execve+187/1ec>
Trace; c012eba9 <do_execve+1a9/1ec>
Trace; fc85d822 <cleanup_module+35d6/????>
Trace; fc85d7c0 <cleanup_module+3574/????>
Trace; fc85c2c3 <cleanup_module+2077/????>
Trace; c01094cd <error_code+2d/34>
Trace; c010937a <lcall7+3e/44>
Code;  c013333e <locks_remove_flock+e/90>
00000000 <_EIP>:
Code;  c013333e <locks_remove_flock+e/90>   <=====
   0:   8b 40 08          movl   0x8(%eax),%eax   <=====
Code;  c0133341 <locks_remove_flock+11/90>
   3:   89 44 24 10       movl   %eax,0x10(%esp,1)
Code;  c0133345 <locks_remove_flock+15/90>
   7:   8b 6c 24 10       movl   0x10(%esp,1),%ebp
Code;  c0133349 <locks_remove_flock+19/90>
   b:   83 c5 70          addl   $0x70,%ebp
Code;  c013334c <locks_remove_flock+1c/90>
   e:   8b 54 24 10       movl   0x10(%esp,1),%edx
Code;  c0133350 <locks_remove_flock+20/90>
  12:   8b 72 00          movl   0x0(%edx),%esi
Dec  3 20:13:09 symixsrv kernel: Unable to handle kernel paging request at virtual address 003040f0
Dec  3 20:13:09 symixsrv kernel: current->tss.cr3 = 3bb63000, pr3 = 3bb63000
Dec  3 20:13:09 symixsrv kernel: *pde = 2a9df067
Dec  3 20:13:09 symixsrv kernel: Oops: 0000
Dec  3 20:13:09 symixsrv kernel: CPU:    3
Dec  3 20:13:09 symixsrv kernel: EIP:    0010:[<c0128481>]
Dec  3 20:13:09 symixsrv kernel: EFLAGS: 00010202
Dec  3 20:13:09 symixsrv kernel: eax: fffffff7   ebx: cb33f480   ecx: 00304088   edx: 00000000
Dec  3 20:13:09 symixsrv kernel: esi: 00000000   edi: c0128414   ebp: 0000053c   esp: c2281f18
Dec  3 20:13:09 symixsrv kernel: ds: 0018   es: 0018   ss: 0018
Dec  3 20:13:09 symixsrv kernel: Process _progres (pid: 5956, process nr: 93, stackpage=c2281000)
Dec  3 20:13:09 symixsrv kernel: Stack: c0128414 c2281fc4 000000d3 00000000 0058c050 fc85d9ee 0000000a 00632d38 
Dec  3 20:13:09 symixsrv kernel:        0000053c 00000003 ffffffda fc85d9d0 c2281fc4 00000000 ea2f1000 37c55067 
Dec  3 20:13:09 symixsrv kernel:        37c55067 37c55067 c011dec6 c2280000 ebedf8c0 0058c050 e3156630 fc85c321 
Dec  3 20:13:09 symixsrv kernel: Call Trace: [<c0128414>] [<fc85d9ee>] [<fc85d9d0>] [<c011dec6>] [<fc85c321>] [<c01094cd>] [<c010937a>] 
Dec  3 20:13:09 symixsrv kernel: Code: 8b 51 68 85 d2 74 06 f6 42 20 40 75 09 f6 81 88 00 00 00 40 
>>EIP; c0128481 <sys_read+6d/104>   <=====
Trace; c0128414 <sys_read+0/104>
Trace; fc85d9ee <cleanup_module+37a2/????>
Trace; fc85d9d0 <cleanup_module+3784/????>
Trace; c011dec6 <handle_mm_fault+16a/1dc>
Trace; fc85c321 <cleanup_module+20d5/????>
Trace; c01094cd <error_code+2d/34>
Trace; c010937a <lcall7+3e/44>
Code;  c0128481 <sys_read+6d/104>
00000000 <_EIP>:
Code;  c0128481 <sys_read+6d/104>   <=====
   0:   8b 51 68          movl   0x68(%ecx),%edx   <=====
Code;  c0128484 <sys_read+70/104>
   3:   85 d2             testl  %edx,%edx
Code;  c0128486 <sys_read+72/104>
   5:   74 06             je     d <_EIP+0xd> c012848e <sys_read+7a/104>
Code;  c0128488 <sys_read+74/104>
   7:   f6 42 20 40       testb  $0x40,0x20(%edx)
Code;  c012848c <sys_read+78/104>
   b:   75 09             jne    16 <_EIP+0x16> c0128497 <sys_read+83/104>
Code;  c012848e <sys_read+7a/104>
   d:   f6 81 88 00 00    testb  $0x40,0x88(%ecx)
Code;  c0128493 <sys_read+7f/104>
  12:   00 40 
Dec  3 20:13:09 symixsrv kernel: Unable to handle kernel NULL pointer dereference at virtual address 00000008
Dec  3 20:13:09 symixsrv kernel: current->tss.cr3 = 00101000, pr3 = 00101000
Dec  3 20:13:09 symixsrv kernel: *pde = 00000000
Dec  3 20:13:09 symixsrv kernel: Oops: 0000
Dec  3 20:13:09 symixsrv kernel: CPU:    3
Dec  3 20:13:09 symixsrv kernel: EIP:    0010:[<c0128050>]
Dec  3 20:13:09 symixsrv kernel: EFLAGS: 00010246
Dec  3 20:13:09 symixsrv kernel: eax: 00000000   ebx: cb33f480   ecx: 0000000a   edx: cb33f480
Dec  3 20:13:09 symixsrv kernel: esi: 00000000   edi: 00000000   ebp: d20791a0   esp: c2281e70
Dec  3 20:13:09 symixsrv kernel: ds: 0018   es: 0018   ss: 0018
Dec  3 20:13:09 symixsrv kernel: Process _progres (pid: 5956, process nr: 93, stackpage=c2281000)
Dec  3 20:13:09 symixsrv kernel: Stack: d20791a0 00000001 c0119af9 cb33f480 d20791a0 c2281edc c2280000 00304000 
Dec  3 20:13:09 symixsrv kernel:        0000053c 0000000a c2280000 c01098d7 0000000b 00000000 c0110806 c01acf90 
Dec  3 20:13:09 symixsrv kernel:        c2281edc 00000000 c2280000 00000000 c0128414 0000053c ebedf4c0 e7d65620 
Dec  3 20:13:09 symixsrv kernel: Call Trace: [<c0119af9>] [<c01098d7>] [<c0110806>] [<c01acf90>] [<c0128414>] [<c01094cd>] [<c0128414>] 
Dec  3 20:13:09 symixsrv kernel:        [<c0128481>] [<c0128414>] [<fc85d9ee>] [<fc85d9d0>] [<c011dec6>] [<fc85c321>] [<c01094cd>] [<c010937a>] 
Dec  3 20:13:09 symixsrv kernel: Code: 83 7f 08 00 74 0a 55 53 e8 47 b2 00 00 83 c4 08 53 e8 2e 12 
>>EIP; c0128050 <filp_close+44/64>   <=====
Trace; c0119af9 <do_exit+17d/2d0>
Trace; c01098d7 <die+53/54>
Trace; c0110806 <do_page_fault+2fa/350>
Trace; c01acf90 <lk_lockmsg+1199/1221>
Trace; c0128414 <sys_read+0/104>
Trace; c01094cd <error_code+2d/34>
Trace; c0128414 <sys_read+0/104>
Trace; c0128481 <sys_read+6d/104>
Trace; c0128414 <sys_read+0/104>
Trace; fc85d9ee <cleanup_module+37a2/????>
Trace; fc85d9d0 <cleanup_module+3784/????>
Trace; c011dec6 <handle_mm_fault+16a/1dc>
Trace; fc85c321 <cleanup_module+20d5/????>
Trace; c01094cd <error_code+2d/34>
Trace; c010937a <lcall7+3e/44>
Code;  c0128050 <filp_close+44/64>
00000000 <_EIP>:
Code;  c0128050 <filp_close+44/64>   <=====
   0:   83 7f 08 00       cmpl   $0x0,0x8(%edi)   <=====
Code;  c0128054 <filp_close+48/64>
   4:   74 0a             je     10 <_EIP+0x10> c0128060 <filp_close+54/64>
Code;  c0128056 <filp_close+4a/64>
   6:   55                pushl  %ebp
Code;  c0128057 <filp_close+4b/64>
   7:   53                pushl  %ebx
Code;  c0128058 <filp_close+4c/64>
   8:   e8 47 b2 00 00    call   b254 <_EIP+0xb254> c01332a4 <locks_remove_posix+0/8c>
Code;  c012805d <filp_close+51/64>
   d:   83 c4 08          addl   $0x8,%esp
Code;  c0128060 <filp_close+54/64>
  10:   53                pushl  %ebx
Code;  c0128061 <filp_close+55/64>
  11:   e8 2e 12 00 00    call   1244 <_EIP+0x1244> c0129294 <fput+0/48>
Dec  3 20:13:30 symixsrv kernel: Unable to handle kernel paging request at virtual address 000893f5
Dec  3 20:13:30 symixsrv kernel: current->tss.cr3 = 252e7000, pr3 = 252e7000
Dec  3 20:13:30 symixsrv kernel: *pde = 2485d067
Dec  3 20:13:30 symixsrv kernel: Oops: 0000
Dec  3 20:13:30 symixsrv kernel: CPU:    3
Dec  3 20:13:30 symixsrv kernel: EIP:    0010:[<c014a312>]
Dec  3 20:13:30 symixsrv kernel: EFLAGS: 00010202
Dec  3 20:13:30 symixsrv kernel: eax: 00000000   ebx: c5768920   ecx: e51dde14   edx: c5768920
Dec  3 20:13:30 symixsrv kernel: esi: 00089368   edi: bffffacc   ebp: 00000001   esp: e51dddf4
Dec  3 20:13:30 symixsrv kernel: ds: 0018   es: 0018   ss: 0018
Dec  3 20:13:30 symixsrv kernel: Process _mprosrv (pid: 24702, process nr: 86, stackpage=e51dd000)
Dec  3 20:13:30 symixsrv kernel: Stack: bffffacc c014b441 00000019 e51dde14 0000000e bffffae0 bffffa80 bffffacc 
Dec  3 20:13:30 symixsrv kernel:        0000000e c014bb86 00000019 00000001 00000004 bffffacc bffffae0 bffffa78 
Dec  3 20:13:30 symixsrv kernel:        00000019 00000001 00000004 bffffacc bffffae0 fc861eff fc8620ae 0000000f 
Dec  3 20:13:30 symixsrv kernel: Call Trace: [<c014b441>] [<c014bb86>] [<fc861eff>] [<fc8620ae>] [<fc86363a>] [<c0159d68>] [<c0168872>] 
Dec  3 20:13:30 symixsrv kernel:        [<fc864666>] [<c01322ec>] [<c01327a2>] [<c0132318>] [<fc85e238>] [<fc85f54c>] [<fc85f500>] [<fc85c2c3>] 
Dec  3 20:13:30 symixsrv kernel:        [<c010937a>] 
Dec  3 20:13:30 symixsrv kernel: Code: 80 be 8d 00 00 00 00 74 0a 8d be 9c 00 00 00 85 ff 75 17 c7 
>>EIP; c014a312 <sockfd_lookup+4a/98>   <=====
Trace; c014b441 <sys_getsockopt+3d/a4>
Trace; c014bb86 <sys_socketcall+20a/248>
Trace; fc861eff <cleanup_module+7cb3/????>
Trace; fc8620ae <cleanup_module+7e62/????>
Trace; fc86363a <END_OF_CODE+93ee/????>
Trace; c0159d68 <tcp_poll+3c/f0>
Trace; c0168872 <inet_poll+22/2c>
Trace; fc864666 <END_OF_CODE+a41a/????>
Trace; c01322ec <do_select+214/240>
Trace; c01327a2 <sys_select+48a/498>
Trace; c0132318 <sys_select+0/498>
Trace; fc85e238 <cleanup_module+3fec/????>
Trace; fc85f54c <cleanup_module+5300/????>
Trace; fc85f500 <cleanup_module+52b4/????>
Trace; fc85c2c3 <cleanup_module+2077/????>
Trace; c010937a <lcall7+3e/44>
Code;  c014a312 <sockfd_lookup+4a/98>
00000000 <_EIP>:
Code;  c014a312 <sockfd_lookup+4a/98>   <=====
   0:   80 be 8d 00 00    cmpb   $0x0,0x8d(%esi)   <=====
Code;  c014a317 <sockfd_lookup+4f/98>
   5:   00 00 
Code;  c014a319 <sockfd_lookup+51/98>
   7:   74 0a             je     13 <_EIP+0x13> c014a325 <sockfd_lookup+5d/98>
Code;  c014a31b <sockfd_lookup+53/98>
   9:   8d be 9c 00 00    leal   0x9c(%esi),%edi
Code;  c014a320 <sockfd_lookup+58/98>
   e:   00 
Code;  c014a321 <sockfd_lookup+59/98>
   f:   85 ff             testl  %edi,%edi
Code;  c014a323 <sockfd_lookup+5b/98>
  11:   75 17             jne    2a <_EIP+0x2a> c014a33c <sockfd_lookup+74/98>
Code;  c014a325 <sockfd_lookup+5d/98>
  13:   c7 00 00 00 00    movl   $0x0,(%eax)
Code;  c014a32a <sockfd_lookup+62/98>
  18:   00 
3 warnings issued.  Results may not be reliable.
ksymoops 0.7c on i686 2.2.13.  Options used
     -V (default)
     -k /proc/ksyms (default)
     -l /proc/modules (default)
     -o /lib/modules/2.2.13/ (default)
     -m /usr/src/linux/System.map (default)
Warning: You did not tell me where to find symbol information.  I will
assume that the log matches the kernel and modules that are running
right now and I'll use the default options above for symbol resolution.
If the current kernel and/or modules do not match the log, you can get
more accurate output by telling me the kernel version and where to find
map, modules, ksyms etc.  ksymoops -h explains the options.
Warning (compare_ksyms_lsmod): module 3c59x is in lsmod but not in ksyms, probably no symbols exported
Warning (compare_ksyms_lsmod): module iBCS is in lsmod but not in ksyms, probably no symbols exported
Dec  7 13:46:16 symixsrv kernel: Unable to handle kernel NULL pointer dereference at virtual address 00000008
Dec  7 13:46:16 symixsrv kernel: current->tss.cr3 = 0249c000, pr3 = 0249c000
Dec  7 13:46:16 symixsrv kernel: *pde = 00000000
Dec  7 13:46:16 symixsrv kernel: Oops: 0000
Dec  7 13:46:16 symixsrv kernel: CPU:    0
Dec  7 13:46:16 symixsrv kernel: EIP:    0010:[<c0128470>]
Using defaults from ksymoops -t elf32-i386 -a i386
Dec  7 13:46:16 symixsrv kernel: EFLAGS: 00010202
Dec  7 13:46:16 symixsrv kernel: eax: fffffff7   ebx: c0d55500   ecx: c0d55500   edx: 00000000
Dec  7 13:46:16 symixsrv kernel: esi: 400e718c   edi: bffff15c   ebp: 00000180   esp: e935dfac
Dec  7 13:46:16 symixsrv kernel: ds: 0018   es: 0018   ss: 0018
Dec  7 13:46:16 symixsrv kernel: Process login (pid: 26427, process nr: 188, stackpage=e935d000)
Dec  7 13:46:16 symixsrv kernel: Stack: bffff15c bffff0f0 c010b3b1 4000a358 bffff058 c01093c8 00000003 400e718c 
Dec  7 13:46:16 symixsrv kernel:        00000180 400e718c bffff15c bffff0f0 00000003 c010002b 0000002b 00000003 
Dec  7 13:46:16 symixsrv kernel:        400b3f74 00000023 00000206 bffff0c0 0000002b 
Dec  7 13:46:16 symixsrv kernel: Call Trace: [<c010b3b1>] [<c01093c8>] [<c010002b>] 
Dec  7 13:46:16 symixsrv kernel: Code: 8b 4a 08 8b 73 14 89 74 24 10 8b 73 18 89 74 24 14 8b 51 68 
>>EIP; c0128470 <sys_read+5c/104>   <=====
Trace; c010b3b1 <do_IRQ+4d/54>
Trace; c01093c8 <system_call+34/38>
Trace; c010002b <startup_32+2b/a4>
Code;  c0128470 <sys_read+5c/104>
00000000 <_EIP>:
Code;  c0128470 <sys_read+5c/104>   <=====
   0:   8b 4a 08          movl   0x8(%edx),%ecx   <=====
Code;  c0128473 <sys_read+5f/104>
   3:   8b 73 14          movl   0x14(%ebx),%esi
Code;  c0128476 <sys_read+62/104>
   6:   89 74 24 10       movl   %esi,0x10(%esp,1)
Code;  c012847a <sys_read+66/104>
   a:   8b 73 18          movl   0x18(%ebx),%esi
Code;  c012847d <sys_read+69/104>
   d:   89 74 24 14       movl   %esi,0x14(%esp,1)
Code;  c0128481 <sys_read+6d/104>
  11:   8b 51 68          movl   0x68(%ecx),%edx
Dec  7 13:46:16 symixsrv kernel: Unable to handle kernel NULL pointer dereference at virtual address 00000008
Dec  7 13:46:16 symixsrv kernel: current->tss.cr3 = 00101000, pr3 = 00101000
Dec  7 13:46:16 symixsrv kernel: *pde = 00000000
Dec  7 13:46:16 symixsrv kernel: Oops: 0000
Dec  7 13:46:16 symixsrv kernel: CPU:    0
Dec  7 13:46:16 symixsrv kernel: EIP:    0010:[<c0128050>]
Dec  7 13:46:16 symixsrv kernel: EFLAGS: 00010246
Dec  7 13:46:16 symixsrv kernel: eax: 00000000   ebx: c0d55500   ecx: 00000003   edx: c0d55500
Dec  7 13:46:16 symixsrv kernel: esi: 00000000   edi: 00000000   ebp: f34b1700   esp: e935df04
Dec  7 13:46:16 symixsrv kernel: ds: 0018   es: 0018   ss: 0018
Dec  7 13:46:16 symixsrv kernel: Process login (pid: 26427, process nr: 188, stackpage=e935d000)
Dec  7 13:46:16 symixsrv kernel: Stack: f34b1700 00000001 c0119af9 c0d55500 f34b1700 e935df70 e935c000 00000008 
Dec  7 13:46:16 symixsrv kernel:        00000180 00000003 e935c000 c01098d7 0000000b 00000000 c0110806 c01acf90 
Dec  7 13:46:16 symixsrv kernel:        e935df70 00000000 e935c000 400e718c bffff15c 00000180 c1cf1f20 f10325e0 
Dec  7 13:46:16 symixsrv kernel: Call Trace: [<c0119af9>] [<c01098d7>] [<c0110806>] [<c01acf90>] [<c01094cd>] [<c0128470>] [<c010b3b1>] 
Dec  7 13:46:16 symixsrv kernel:        [<c01093c8>] [<c010002b>] 
Dec  7 13:46:16 symixsrv kernel: Code: 83 7f 08 00 74 0a 55 53 e8 47 b2 00 00 83 c4 08 53 e8 2e 12 
>>EIP; c0128050 <filp_close+44/64>   <=====
Trace; c0119af9 <do_exit+17d/2d0>
Trace; c01098d7 <die+53/54>
Trace; c0110806 <do_page_fault+2fa/350>
Trace; c01acf90 <lk_lockmsg+1199/1221>
Trace; c01094cd <error_code+2d/34>
Trace; c0128470 <sys_read+5c/104>
Trace; c010b3b1 <do_IRQ+4d/54>
Trace; c01093c8 <system_call+34/38>
Trace; c010002b <startup_32+2b/a4>
Code;  c0128050 <filp_close+44/64>
00000000 <_EIP>:
Code;  c0128050 <filp_close+44/64>   <=====
   0:   83 7f 08 00       cmpl   $0x0,0x8(%edi)   <=====
Code;  c0128054 <filp_close+48/64>
   4:   74 0a             je     10 <_EIP+0x10> c0128060 <filp_close+54/64>
Code;  c0128056 <filp_close+4a/64>
   6:   55                pushl  %ebp
Code;  c0128057 <filp_close+4b/64>
   7:   53                pushl  %ebx
Code;  c0128058 <filp_close+4c/64>
   8:   e8 47 b2 00 00    call   b254 <_EIP+0xb254> c01332a4 <locks_remove_posix+0/8c>
Code;  c012805d <filp_close+51/64>
   d:   83 c4 08          addl   $0x8,%esp
Code;  c0128060 <filp_close+54/64>
  10:   53                pushl  %ebx
Code;  c0128061 <filp_close+55/64>
  11:   e8 2e 12 00 00    call   1244 <_EIP+0x1244> c0129294 <fput+0/48>
Dec  8 07:00:25 symixsrv kernel: Unable to handle kernel NULL pointer dereference at virtual address 00000000
Dec  8 07:00:25 symixsrv kernel: current->tss.cr3 = 338f8000, pr3 = 338f8000
Dec  8 07:00:25 symixsrv kernel: *pde = 2c841067
Dec  8 07:00:25 symixsrv kernel: Oops: 0003
Dec  8 07:00:25 symixsrv kernel: CPU:    3
Dec  8 07:00:25 symixsrv kernel: EIP:    0010:[<c012912f>]
Dec  8 07:00:25 symixsrv kernel: EFLAGS: 00010246
Dec  8 07:00:25 symixsrv kernel: eax: 00000000   ebx: ea14a900   ecx: 00000000   edx: 00000000
Dec  8 07:00:25 symixsrv kernel: esi: ffffffe9   edi: bffffc08   ebp: f08c3000   esp: f9ef7e90
Dec  8 07:00:25 symixsrv kernel: ds: 0018   es: 0018   ss: 0018
Dec  8 07:00:25 symixsrv kernel: Process _progres (pid: 6712, process nr: 53, stackpage=f9ef7000)
Dec  8 07:00:25 symixsrv kernel: Stack: 00430e50 c0127c9a 0000000b f9ef6000 f08c3000 bffffc08 c0127f4b f08c3000 
Dec  8 07:00:25 symixsrv kernel:        00000000 bffffc08 00000000 ffffffda bffff6e4 00000000 fc86143e bffff6e4 
Dec  8 07:00:25 symixsrv kernel:        00000000 bffffc08 00000003 ffffffda fc8613f0 f9ef7fc4 00000001 e92e0d60 
Dec  8 07:00:25 symixsrv kernel: Call Trace: [<c0127c9a>] [<c0127f4b>] [<fc86143e>] [<fc8613f0>] [<c012f71c>] [<c011d818>] [<c011dec6>] 
Dec  8 07:00:25 symixsrv kernel:        [<fc85c321>] [<c01094cd>] [<c010937a>] 
Dec  8 07:00:25 symixsrv kernel: Code: 89 02 ff 0d d4 33 1d c0 b9 16 00 00 00 89 df 31 c0 fc f3 ab 
>>EIP; c012912f <get_empty_filp+2b/114>   <=====
Trace; c0127c9a <filp_open+16/f8>
Trace; c0127f4b <sys_open+53/b4>
Trace; fc86143e <cleanup_module+71f2/????>
Trace; fc8613f0 <cleanup_module+71a4/????>
Trace; c012f71c <do_follow_link+7c/88>
Trace; c011d818 <do_wp_page+11c/240>
Trace; c011dec6 <handle_mm_fault+16a/1dc>
Trace; fc85c321 <cleanup_module+20d5/????>
Trace; c01094cd <error_code+2d/34>
Trace; c010937a <lcall7+3e/44>
Code;  c012912f <get_empty_filp+2b/114>
00000000 <_EIP>:
Code;  c012912f <get_empty_filp+2b/114>   <=====
   0:   89 02             movl   %eax,(%edx)   <=====
Code;  c0129131 <get_empty_filp+2d/114>
   2:   ff 0d d4 33 1d    decl   0xc01d33d4
Code;  c0129136 <get_empty_filp+32/114>
   7:   c0 
Code;  c0129137 <get_empty_filp+33/114>
   8:   b9 16 00 00 00    movl   $0x16,%ecx
Code;  c012913c <get_empty_filp+38/114>
   d:   89 df             movl   %ebx,%edi
Code;  c012913e <get_empty_filp+3a/114>
   f:   31 c0             xorl   %eax,%eax
Code;  c0129140 <get_empty_filp+3c/114>
  11:   fc                cld    
Code;  c0129141 <get_empty_filp+3d/114>
  12:   f3 ab             repz stosl %eax,%es:(%edi)
Dec  8 07:04:41 symixsrv kernel: Unable to handle kernel NULL pointer dereference at virtual address 00000000
Dec  8 07:04:41 symixsrv kernel: current->tss.cr3 = 33290000, pr3 = 33290000
Dec  8 07:04:41 symixsrv kernel: *pde = 333a4067
Dec  8 07:04:41 symixsrv kernel: Oops: 0003
Dec  8 07:04:41 symixsrv kernel: CPU:    2
Dec  8 07:04:41 symixsrv kernel: EIP:    0010:[<c012912f>]
Dec  8 07:04:41 symixsrv kernel: EFLAGS: 00010282
Dec  8 07:04:41 symixsrv kernel: eax: 00000000   ebx: f71da2c0   ecx: 00000000   edx: 00000000
Dec  8 07:04:41 symixsrv kernel: esi: ffffffe9   edi: bffffc0c   ebp: fbe30000   esp: f747de90
Dec  8 07:04:41 symixsrv kernel: ds: 0018   es: 0018   ss: 0018
Dec  8 07:04:41 symixsrv kernel: Process _progres (pid: 6854, process nr: 144, stackpage=f747d000)
Dec  8 07:04:41 symixsrv kernel: Stack: 00430e50 c0127c9a 0000000b f747c000 fbe30000 bffffc0c c0127f4b fbe30000 
Dec  8 07:04:41 symixsrv kernel:        00000000 bffffc0c 00000000 ffffffda bffff6e8 00000000 fc86143e bffff6e8 
Dec  8 07:04:41 symixsrv kernel:        00000000 bffffc0c 00000003 ffffffda fc8613f0 f747dfc4 00000001 e92e0d60 
Dec  8 07:04:41 symixsrv kernel: Call Trace: [<c0127c9a>] [<c0127f4b>] [<fc86143e>] [<fc8613f0>] [<c012f71c>] [<c011d818>] [<c011dec6>] 
Dec  8 07:04:41 symixsrv kernel:        [<fc85c321>] [<c01094cd>] [<c010937a>] 
Dec  8 07:04:41 symixsrv kernel: Code: 89 02 ff 0d d4 33 1d c0 b9 16 00 00 00 89 df 31 c0 fc f3 ab 
>>EIP; c012912f <get_empty_filp+2b/114>   <=====
Trace; c0127c9a <filp_open+16/f8>
Trace; c0127f4b <sys_open+53/b4>
Trace; fc86143e <cleanup_module+71f2/????>
Trace; fc8613f0 <cleanup_module+71a4/????>
Trace; c012f71c <do_follow_link+7c/88>
Trace; c011d818 <do_wp_page+11c/240>
Trace; c011dec6 <handle_mm_fault+16a/1dc>
Trace; fc85c321 <cleanup_module+20d5/????>
Trace; c01094cd <error_code+2d/34>
Trace; c010937a <lcall7+3e/44>
Code;  c012912f <get_empty_filp+2b/114>
00000000 <_EIP>:
Code;  c012912f <get_empty_filp+2b/114>   <=====
   0:   89 02             movl   %eax,(%edx)   <=====
Code;  c0129131 <get_empty_filp+2d/114>
   2:   ff 0d d4 33 1d    decl   0xc01d33d4
Code;  c0129136 <get_empty_filp+32/114>
   7:   c0 
Code;  c0129137 <get_empty_filp+33/114>
   8:   b9 16 00 00 00    movl   $0x16,%ecx
Code;  c012913c <get_empty_filp+38/114>
   d:   89 df             movl   %ebx,%edi
Code;  c012913e <get_empty_filp+3a/114>
   f:   31 c0             xorl   %eax,%eax
Code;  c0129140 <get_empty_filp+3c/114>
  11:   fc                cld    
Code;  c0129141 <get_empty_filp+3d/114>
  12:   f3 ab             repz stosl %eax,%es:(%edi)
3 warnings issued.  Results may not be reliable.
ksymoops 0.7c on i686 2.2.13.  Options used
     -V (default)
     -k /proc/ksyms (default)
     -l /proc/modules (default)
     -o /lib/modules/2.2.13/ (default)
     -m /usr/src/linux/System.map (default)
Warning: You did not tell me where to find symbol information.  I will
assume that the log matches the kernel and modules that are running
right now and I'll use the default options above for symbol resolution.
If the current kernel and/or modules do not match the log, you can get
more accurate output by telling me the kernel version and where to find
map, modules, ksyms etc.  ksymoops -h explains the options.
Warning (compare_ksyms_lsmod): module 3c59x is in lsmod but not in ksyms, probably no symbols exported
Warning (compare_ksyms_lsmod): module iBCS is in lsmod but not in ksyms, probably no symbols exported
Unable to handle kernel NULL pointer dereference at virtual address 00000000
current->tss.cr3 = 39212000, %cr3 = 39212000
*pde = 3904c067
Oops: 0003
CPU:    3
EIP:    0010:[<c012912f>]
Using defaults from ksymoops -t elf32-i386 -a i386
EFLAGS: 00010282
eax: 00000000   ebx: ef48ff80   ecx: 00000000   edx: 00000000
esi: ffffffe9   edi: bffffbfc   ebp: f954d000   esp: f9119e90
ds: 0018   es: 0018   ss: 0018
Process _progres (pid: 21473, process nr: 90, stackpage=f9119000)
Stack: 00430e50 c0127c9a 0000000b f9118000 f954d000 bffffbfc c0127f4b f954d000 
       00000000 bffffbfc 00000000 ffffffda bffff6d8 00000000 fc86143e bffff6d8 
       00000000 bffffbfc 00000003 ffffffda fc8613f0 f9119fc4 00000001 fb992160 
Call Trace: [<c0127c9a>] [<c0127f4b>] [<fc86143e>] [<fc8613f0>] [<c012f71c>] [<c011d818>] [<c011dec6>] 
       [<fc85c321>] [<c01094cd>] [<c010937a>] 
Code: 89 02 ff 0d d4 33 1d c0 b9 16 00 00 00 89 df 31 c0 fc f3 ab 
>>EIP; c012912f <get_empty_filp+2b/114>   <=====
Trace; c0127c9a <filp_open+16/f8>
Trace; c0127f4b <sys_open+53/b4>
Trace; fc86143e <cleanup_module+71f2/????>
Trace; fc8613f0 <cleanup_module+71a4/????>
Trace; c012f71c <do_follow_link+7c/88>
Trace; c011d818 <do_wp_page+11c/240>
Trace; c011dec6 <handle_mm_fault+16a/1dc>
Trace; fc85c321 <cleanup_module+20d5/????>
Trace; c01094cd <error_code+2d/34>
Trace; c010937a <lcall7+3e/44>
Code;  c012912f <get_empty_filp+2b/114>
00000000 <_EIP>:
Code;  c012912f <get_empty_filp+2b/114>   <=====
   0:   89 02             movl   %eax,(%edx)   <=====
Code;  c0129131 <get_empty_filp+2d/114>
   2:   ff 0d d4 33 1d    decl   0xc01d33d4
Code;  c0129136 <get_empty_filp+32/114>
   7:   c0 
Code;  c0129137 <get_empty_filp+33/114>
   8:   b9 16 00 00 00    movl   $0x16,%ecx
Code;  c012913c <get_empty_filp+38/114>
   d:   89 df             movl   %ebx,%edi
Code;  c012913e <get_empty_filp+3a/114>
   f:   31 c0             xorl   %eax,%eax
Code;  c0129140 <get_empty_filp+3c/114>
  11:   fc                cld    
Code;  c0129141 <get_empty_filp+3d/114>
  12:   f3 ab             repz stosl %eax,%es:(%edi)
Unable to handle kernel paging request at virtual address 003040f0
current->tss.cr3 = 2a10a000, %cr3 = 2a10a000
*pde = 391c2067
Oops: 0000
CPU:    3
EIP:    0010:[<c0128481>]
EFLAGS: 00010202
eax: fffffff7   ebx: f3c50300   ecx: 00304088   edx: 00000000
esi: 00000000   edi: c0128414   ebp: 000001d0   esp: e9a21f18
ds: 0018   es: 0018   ss: 0018
Process _progres (pid: 22351, process nr: 194, stackpage=e9a21000)
Stack: c0128414 e9a21fc4 0000051f 00000000 00000448 fc85d9ee 0000000b 00577318 
       000001d0 00000003 ffffffda fc85d9d0 e9a21fc4 00000213 e92cc000 01b48067 
       01b48067 01b48067 c011dec6 e9a20000 eb316940 00476d00 00000448 fc85c321 
Call Trace: [<c0128414>] [<fc85d9ee>] [<fc85d9d0>] [<c011dec6>] [<fc85c321>] [<c01094cd>] [<c010937a>] 
Code: 8b 51 68 85 d2 74 06 f6 42 20 40 75 09 f6 81 88 00 00 00 40 
>>EIP; c0128481 <sys_read+6d/104>   <=====
Trace; c0128414 <sys_read+0/104>
Trace; fc85d9ee <cleanup_module+37a2/????>
Trace; fc85d9d0 <cleanup_module+3784/????>
Trace; c011dec6 <handle_mm_fault+16a/1dc>
Trace; fc85c321 <cleanup_module+20d5/????>
Trace; c01094cd <error_code+2d/34>
Trace; c010937a <lcall7+3e/44>
Code;  c0128481 <sys_read+6d/104>
00000000 <_EIP>:
Code;  c0128481 <sys_read+6d/104>   <=====
   0:   8b 51 68          movl   0x68(%ecx),%edx   <=====
Code;  c0128484 <sys_read+70/104>
   3:   85 d2             testl  %edx,%edx
Code;  c0128486 <sys_read+72/104>
   5:   74 06             je     d <_EIP+0xd> c012848e <sys_read+7a/104>
Code;  c0128488 <sys_read+74/104>
   7:   f6 42 20 40       testb  $0x40,0x20(%edx)
Code;  c012848c <sys_read+78/104>
   b:   75 09             jne    16 <_EIP+0x16> c0128497 <sys_read+83/104>
Code;  c012848e <sys_read+7a/104>
   d:   f6 81 88 00 00    testb  $0x40,0x88(%ecx)
Code;  c0128493 <sys_read+7f/104>
  12:   00 40 
Unable to handle kernel NULL pointer dereference at virtual address 00000008
current->tss.cr3 = 00101000, %cr3 = 00101000
*pde = 00000000
Oops: 0000
CPU:    3
EIP:    0010:[<c0128050>]
EFLAGS: 00010246
eax: 00000000   ebx: f3c50300   ecx: 0000000b   edx: f3c50300
esi: 00000000   edi: 00000000   ebp: f16647c0   esp: e9a21e70
ds: 0018   es: 0018   ss: 0018
Process _progres (pid: 22351, process nr: 194, stackpage=e9a21000)
Stack: f16647c0 00000001 c0119af9 f3c50300 f16647c0 e9a21edc e9a20000 00304000 
       000001d0 0000000b e9a20000 c01098d7 0000000b 00000000 c0110806 c01acf90 
       e9a21edc 00000000 e9a20000 00000000 c0128414 000001d0 eb316ec0 c2203f60 
Call Trace: [<c0119af9>] [<c01098d7>] [<c0110806>] [<c01acf90>] [<c0128414>] [<c01094cd>] [<c0128414>] 
       [<c0128481>] [<c0128414>] [<fc85d9ee>] [<fc85d9d0>] [<c011dec6>] [<fc85c321>] [<c01094cd>] [<c010937a>] 
Code: 83 7f 08 00 74 0a 55 53 e8 47 b2 00 00 83 c4 08 53 e8 2e 12 
>>EIP; c0128050 <filp_close+44/64>   <=====
Trace; c0119af9 <do_exit+17d/2d0>
Trace; c01098d7 <die+53/54>
Trace; c0110806 <do_page_fault+2fa/350>
Trace; c01acf90 <lk_lockmsg+1199/1221>
Trace; c0128414 <sys_read+0/104>
Trace; c01094cd <error_code+2d/34>
Trace; c0128414 <sys_read+0/104>
Trace; c0128481 <sys_read+6d/104>
Trace; c0128414 <sys_read+0/104>
Trace; fc85d9ee <cleanup_module+37a2/????>
Trace; fc85d9d0 <cleanup_module+3784/????>
Trace; c011dec6 <handle_mm_fault+16a/1dc>
Trace; fc85c321 <cleanup_module+20d5/????>
Trace; c01094cd <error_code+2d/34>
Trace; c010937a <lcall7+3e/44>
Code;  c0128050 <filp_close+44/64>
00000000 <_EIP>:
Code;  c0128050 <filp_close+44/64>   <=====
   0:   83 7f 08 00       cmpl   $0x0,0x8(%edi)   <=====
Code;  c0128054 <filp_close+48/64>
   4:   74 0a             je     10 <_EIP+0x10> c0128060 <filp_close+54/64>
Code;  c0128056 <filp_close+4a/64>
   6:   55                pushl  %ebp
Code;  c0128057 <filp_close+4b/64>
   7:   53                pushl  %ebx
Code;  c0128058 <filp_close+4c/64>
   8:   e8 47 b2 00 00    call   b254 <_EIP+0xb254> c01332a4 <locks_remove_posix+0/8c>
Code;  c012805d <filp_close+51/64>
   d:   83 c4 08          addl   $0x8,%esp
Code;  c0128060 <filp_close+54/64>
  10:   53                pushl  %ebx
Code;  c0128061 <filp_close+55/64>
  11:   e8 2e 12 00 00    call   1244 <_EIP+0x1244> c0129294 <fput+0/48>
3 warnings issued.  Results may not be reliable.
ksymoops 0.7c on i686 2.2.13.  Options used
     -V (default)
     -k /proc/ksyms (default)
     -l /proc/modules (default)
     -o /lib/modules/2.2.13/ (default)
     -m /usr/src/linux/System.map (default)
Warning: You did not tell me where to find symbol information.  I will
assume that the log matches the kernel and modules that are running
right now and I'll use the default options above for symbol resolution.
If the current kernel and/or modules do not match the log, you can get
more accurate output by telling me the kernel version and where to find
map, modules, ksyms etc.  ksymoops -h explains the options.
Warning (compare_ksyms_lsmod): module 3c59x is in lsmod but not in ksyms, probably no symbols exported
Warning (compare_ksyms_lsmod): module iBCS is in lsmod but not in ksyms, probably no symbols exported
Unable to handle kernel NULL pointer dereference at virtual address 00000008
current->tss.cr3 = 00101000, %cr3 = 00101000
*pde = 00000000
Oops: 0000
CPU:    3
EIP:    0010:[<c011ee48>]
Using defaults from ksymoops -t elf32-i386 -a i386
EFLAGS: 00010202
eax: 00000000   ebx: ea586f00   ecx: ea586cc0   edx: ea586cbc
esi: 40009000   edi: ec57c660   ebp: 00002000   esp: f7afdee4
ds: 0018   es: 0018   ss: 0018
Process bash (pid: 11428, process nr: 117, stackpage=f7afd000)
Stack: f7afc000 f7afc000 ea586cc0 c0114adb ec57c660 ec57c660 ec57c660 c0119a86 
       ec57c660 0000000b f7afc000 f7afc000 f7afc000 f7afdf40 f7afc000 c01092d6 
       0000000b f7afc000 bffffa90 bfff0005 bffffa58 f7afc4a4 f7afdfc4 0000000b 
Call Trace: [<c0114adb>] [<c0119a86>] [<c01092d6>] [<c01111f7>] [<c01114b5>] [<c01106c7>] [<c01094cd>] 
       [<c0109410>] 
Code: 8b 40 08 ff 80 90 00 00 00 8b 53 20 85 d2 74 06 8b 43 24 89 
>>EIP; c011ee48 <exit_mmap+88/10c>   <=====
Trace; c0114adb <mmput+1f/38>
Trace; c0119a86 <do_exit+10a/2d0>
Trace; c01092d6 <do_signal+2de/344>
Trace; c01111f7 <force_sig_info+a3/ac>
Trace; c01114b5 <force_sig+11/18>
Trace; c01106c7 <do_page_fault+1bb/350>
Trace; c01094cd <error_code+2d/34>
Trace; c0109410 <signal_return+14/18>
Code;  c011ee48 <exit_mmap+88/10c>
00000000 <_EIP>:
Code;  c011ee48 <exit_mmap+88/10c>   <=====
   0:   8b 40 08          movl   0x8(%eax),%eax   <=====
Code;  c011ee4b <exit_mmap+8b/10c>
   3:   ff 80 90 00 00    incl   0x90(%eax)
Code;  c011ee50 <exit_mmap+90/10c>
   8:   00 
Code;  c011ee51 <exit_mmap+91/10c>
   9:   8b 53 20          movl   0x20(%ebx),%edx
Code;  c011ee54 <exit_mmap+94/10c>
   c:   85 d2             testl  %edx,%edx
Code;  c011ee56 <exit_mmap+96/10c>
   e:   74 06             je     16 <_EIP+0x16> c011ee5e <exit_mmap+9e/10c>
Code;  c011ee58 <exit_mmap+98/10c>
  10:   8b 43 24          movl   0x24(%ebx),%eax
Code;  c011ee5b <exit_mmap+9b/10c>
  13:   89 00             movl   %eax,(%eax)
3 warnings issued.  Results may not be reliable.
ksymoops 0.7c on i686 2.2.13.  Options used
     -V (default)
     -k /proc/ksyms (default)
     -l /proc/modules (default)
     -o /lib/modules/2.2.13/ (default)
     -m /usr/src/linux/System.map (default)
Warning: You did not tell me where to find symbol information.  I will
assume that the log matches the kernel and modules that are running
right now and I'll use the default options above for symbol resolution.
If the current kernel and/or modules do not match the log, you can get
more accurate output by telling me the kernel version and where to find
map, modules, ksyms etc.  ksymoops -h explains the options.
Warning (compare_ksyms_lsmod): module 3c59x is in lsmod but not in ksyms, probably no symbols exported
Warning (compare_ksyms_lsmod): module iBCS is in lsmod but not in ksyms, probably no symbols exported
Unable to handle kernel NULL pointer dereference at virtual address 00000008
current->tss.cr3 = 00101000, %cr3 = 00101000
*pde = 00000000
Oops: 0000
CPU:    0
EIP:    0010:[<c011ee48>]
Using defaults from ksymoops -t elf32-i386 -a i386
EFLAGS: 00010202
eax: 00000000   ebx: ea1e6800   ecx: f0faf400   edx: ea1e6afc
esi: 40009000   edi: f22da4c0   ebp: 00002000   esp: f257bee4
ds: 0018   es: 0018   ss: 0018
Process bash (pid: 32474, process nr: 87, stackpage=f257b000)
Stack: f257a000 f257a000 f0faf400 c0114adb f22da4c0 f22da4c0 f22da4c0 c0119a86 
       f22da4c0 0000000b f257a000 f257a000 f257a000 f257bf40 f257a000 c01092d6 
       0000000b f257a000 00000000 00000000 00000000 f257a4a4 f257bfc4 0000000b 
Call Trace: [<c0114adb>] [<c0119a86>] [<c01092d6>] [<c01111f7>] [<c01114b5>] [<c01106c7>] [<c01094cd>] 
       [<c0109410>] 
Code: 8b 40 08 ff 80 90 00 00 00 8b 53 20 85 d2 74 06 8b 43 24 89 
>>EIP; c011ee48 <exit_mmap+88/10c>   <=====
Trace; c0114adb <mmput+1f/38>
Trace; c0119a86 <do_exit+10a/2d0>
Trace; c01092d6 <do_signal+2de/344>
Trace; c01111f7 <force_sig_info+a3/ac>
Trace; c01114b5 <force_sig+11/18>
Trace; c01106c7 <do_page_fault+1bb/350>
Trace; c01094cd <error_code+2d/34>
Trace; c0109410 <signal_return+14/18>
Code;  c011ee48 <exit_mmap+88/10c>
00000000 <_EIP>:
Code;  c011ee48 <exit_mmap+88/10c>   <=====
   0:   8b 40 08          movl   0x8(%eax),%eax   <=====
Code;  c011ee4b <exit_mmap+8b/10c>
   3:   ff 80 90 00 00    incl   0x90(%eax)
Code;  c011ee50 <exit_mmap+90/10c>
   8:   00 
Code;  c011ee51 <exit_mmap+91/10c>
   9:   8b 53 20          movl   0x20(%ebx),%edx
Code;  c011ee54 <exit_mmap+94/10c>
   c:   85 d2             testl  %edx,%edx
Code;  c011ee56 <exit_mmap+96/10c>
   e:   74 06             je     16 <_EIP+0x16> c011ee5e <exit_mmap+9e/10c>
Code;  c011ee58 <exit_mmap+98/10c>
  10:   8b 43 24          movl   0x24(%ebx),%eax
Code;  c011ee5b <exit_mmap+9b/10c>
  13:   89 00             movl   %eax,(%eax)
Unable to handle kernel NULL pointer dereference at virtual address 00000000
current->tss.cr3 = 349da000, %cr3 = 349da000
*pde = 350a9067
Oops: 0003
CPU:    0
EIP:    0010:[<c012912f>]
EFLAGS: 00010246
eax: 00000000   ebx: ea6ffea0   ecx: 00000000   edx: 00000000
esi: ffffffe9   edi: bffffc00   ebp: ea5c2000   esp: f3ed1e90
ds: 0018   es: 0018   ss: 0018
Process _progres (pid: 5779, process nr: 219, stackpage=f3ed1000)
Stack: e6a41700 c0127c9a 0000000a f3ed0000 ea5c2000 bffffc00 c0127f4b ea5c2000 
       00000000 bffffc00 00000000 ffffffda bffff6dc 00000000 fc86143e bffff6dc 
       00000000 bffffc00 00000003 ffffffda fc8613f0 f3ed1fc4 00000001 e8359840 
Call Trace: [<c0127c9a>] [<c0127f4b>] [<fc86143e>] [<fc8613f0>] [<c012f71c>] [<c011d818>] [<c011dec6>] 
       [<fc85c321>] [<c01094cd>] [<c010937a>] 
Code: 89 02 ff 0d d4 33 1d c0 b9 16 00 00 00 89 df 31 c0 fc f3 ab 
>>EIP; c012912f <get_empty_filp+2b/114>   <=====
Trace; c0127c9a <filp_open+16/f8>
Trace; c0127f4b <sys_open+53/b4>
Trace; fc86143e <cleanup_module+71f2/????>
Trace; fc8613f0 <cleanup_module+71a4/????>
Trace; c012f71c <do_follow_link+7c/88>
Trace; c011d818 <do_wp_page+11c/240>
Trace; c011dec6 <handle_mm_fault+16a/1dc>
Trace; fc85c321 <cleanup_module+20d5/????>
Trace; c01094cd <error_code+2d/34>
Trace; c010937a <lcall7+3e/44>
Code;  c012912f <get_empty_filp+2b/114>
00000000 <_EIP>:
Code;  c012912f <get_empty_filp+2b/114>   <=====
   0:   89 02             movl   %eax,(%edx)   <=====
Code;  c0129131 <get_empty_filp+2d/114>
   2:   ff 0d d4 33 1d    decl   0xc01d33d4
Code;  c0129136 <get_empty_filp+32/114>
   7:   c0 
Code;  c0129137 <get_empty_filp+33/114>
   8:   b9 16 00 00 00    movl   $0x16,%ecx
Code;  c012913c <get_empty_filp+38/114>
   d:   89 df             movl   %ebx,%edi
Code;  c012913e <get_empty_filp+3a/114>
   f:   31 c0             xorl   %eax,%eax
Code;  c0129140 <get_empty_filp+3c/114>
  11:   fc                cld    
Code;  c0129141 <get_empty_filp+3d/114>
  12:   f3 ab             repz stosl %eax,%es:(%edi)
3 warnings issued.  Results may not be reliable.