Date: Wed, 1 Sep 1999 08:52:47 -0400 (EDT)
From: David Ronis <>
Subject: Oops in 2.2.12
Sender: linux-kernel-owner@vger.kernel.org
Precedence: bulk
List-ID: <linux-kernel.vger.kernel.org>
X-Mailing-List: linux-kernel@vger.kernel.org
X-Lkml-Link: https://lkml.org/lkml/1999/9/2/131

I was running the benchmark suit for egcs/gcc for 
               gcc version 2.96 19990831 (experimental)
on my i586-glibc1, linux 2.2.12 box, compiled with gcc-2.95.1 with
-fno-strict-aliasing (I know this isn't recommended, but...) when the
oops's(?) appended below ocurred.  The system wasn't running any other
user processes at the time.  As far as I can tell, it looks like the
same piece of code over and over.
David
-----------------------------------------------------------------------
ksymoops 0.7c on i586 2.2.12.  Options used
     -V (default)
     -k /proc/ksyms (default)
     -l /proc/modules (default)
     -o /lib/modules/2.2.12/ (default)
     -m /usr/src/linux/System.map (default)
Warning: You did not tell me where to find symbol information.  I will
assume that the log matches the kernel and modules that are running
right now and I'll use the default options above for symbol resolution.
If the current kernel and/or modules do not match the log, you can get
more accurate output by telling me the kernel version and where to find
map, modules, ksyms etc.  ksymoops -h explains the options.
Warning (compare_ksyms_lsmod): module isofs is in lsmod but not in ksyms, 
probably no symbols exported
Aug 31 23:04:59 ronispc kernel: Unable to handle kernel paging request at 
virtual address caf5b958
Aug 31 23:04:59 ronispc kernel: current->tss.cr3 = 02891000, Lr3 = 02891000
Aug 31 23:04:59 ronispc kernel: *pde = 00000000
Aug 31 23:04:59 ronispc kernel: Oops: 0000
Aug 31 23:04:59 ronispc kernel: CPU:    0
Aug 31 23:04:59 ronispc kernel: EIP:    0010:[<c01348d4>]
Using defaults from ksymoops -t elf32-i386 -a i386
Aug 31 23:04:59 ronispc kernel: EFLAGS: 00010206
Aug 31 23:04:59 ronispc kernel: eax: 367c491a   ebx: caf5b940   ecx: c12176ec   
edx: c01d5c58
Aug 31 23:04:59 ronispc kernel: esi: 00000000   edi: c2fd32e0   ebp: caf5b958   
esp: c1ca9aec
Aug 31 23:04:59 ronispc kernel: ds: 0018   es: 0018   ss: 0018
Aug 31 23:04:59 ronispc kernel: Process runbench (pid: 24925, process nr: 61, 
stackpage=c1ca9000)
Aug 31 23:04:59 ronispc kernel: Stack: c2fd32e0 c12176fd c01d5c58 c12176ec 
367c491a 00000011 00000013 00000000 
Aug 31 23:04:59 ronispc kernel:        c024c248 c012ef62 c2fd32e0 c1ca9b44 
00000000 c011dbaf c1217650 c2fd32e0 
Aug 31 23:04:59 ronispc kernel:        00000000 c12176ec 00000013 c116fca0 
00000000 00000001 c12176ec 00000011 
Aug 31 23:04:59 ronispc kernel: Call Trace: [<c012ef62>] [<c011dbaf>] 
[<c0135eb0>] [<c01452b7>] [<c01452a8>] [<c012ed21>] [<c012f0e0>] 
Aug 31 23:04:59 ronispc kernel:        [<c012f2e2>] [<c013747e>] [<c0135eb0>] 
[<c011dbaf>] [<c019deb4>] [<c012826f>] [<c0110a30>] [<c01109ab>] 
Aug 31 23:04:59 ronispc kernel:        [<c0108f89>] [<c0118349>] [<c012dfee>] 
[<c012d57a>] [<c012e2f3>] [<c012e31b>] [<c012e233>] [<c0106ba9>] 
Aug 31 23:04:59 ronispc kernel:        [<c0107d4d>] [<c0107c14>] 
Aug 31 23:04:59 ronispc kernel: Code: 8b 6d 00 8b 44 24 18 39 43 48 75 58 8b 54 
24 30 39 53 0c 75 
>>EIP; c01348d4 <d_lookup+58/d0>   <=====
Trace; c012ef62 <lookup_dentry+14e/384>
Trace; c011dbaf <do_generic_file_read+67b/688>
Trace; c0135eb0 <update_atime+64/6c>
Trace; c01452b7 <ext2_follow_link+67/88>
Trace; c01452a8 <ext2_follow_link+58/88>
Trace; c012ed21 <permission+29/11c>
Trace; c012f0e0 <lookup_dentry+2cc/384>
Trace; c012f2e2 <open_namei+6a/30c>
Trace; c013747e <load_elf_binary+2ee/ae8>
Trace; c0135eb0 <update_atime+64/6c>
Trace; c011dbaf <do_generic_file_read+67b/688>
Trace; c019deb4 <cprt+374/3b05>
Trace; c012826f <init_private_file+6f/80>
Trace; c0110a30 <timer_bh+1bc/46c>
Trace; c01109ab <timer_bh+137/46c>
Trace; c0108f89 <do_8259A_IRQ+79/c0>
Trace; c0118349 <do_bottom_half+51/6c>
Trace; c012dfee <search_binary_handler+3e/114>
Trace; c012d57a <copy_strings+8a/1b0>
Trace; c012e2f3 <do_execve+22f/2e4>
Trace; c012e31b <do_execve+257/2e4>
Trace; c012e233 <do_execve+16f/2e4>
Trace; c0106ba9 <sys_execve+35/60>
Trace; c0107d4d <error_code+2d/40>
Trace; c0107c14 <system_call+34/40>
Code;  c01348d4 <d_lookup+58/d0>
00000000 <_EIP>:
Code;  c01348d4 <d_lookup+58/d0>   <=====
   0:   8b 6d 00          movl   0x0(%ebp),%ebp   <=====
Code;  c01348d7 <d_lookup+5b/d0>
   3:   8b 44 24 18       movl   0x18(%esp,1),%eax
Code;  c01348db <d_lookup+5f/d0>
   7:   39 43 48          cmpl   %eax,0x48(%ebx)
Code;  c01348de <d_lookup+62/d0>
   a:   75 58             jne    64 <_EIP+0x64> c0134938 <d_lookup+bc/d0>
Code;  c01348e0 <d_lookup+64/d0>
   c:   8b 54 24 30       movl   0x30(%esp,1),%edx
Code;  c01348e4 <d_lookup+68/d0>
  10:   39 53 0c          cmpl   %edx,0xc(%ebx)
Code;  c01348e7 <d_lookup+6b/d0>
  13:   75 00             jne    15 <_EIP+0x15> c01348e9 <d_lookup+6d/d0>
Aug 31 23:04:59 ronispc kernel: Unable to handle kernel paging request at 
virtual address caf5b958
Aug 31 23:04:59 ronispc kernel: current->tss.cr3 = 02e34000, Lr3 = 02e34000
Aug 31 23:04:59 ronispc kernel: *pde = 00000000
Aug 31 23:04:59 ronispc kernel: Oops: 0000
Aug 31 23:04:59 ronispc kernel: CPU:    0
Aug 31 23:04:59 ronispc kernel: EIP:    0010:[<c01348d4>]
Aug 31 23:04:59 ronispc kernel: EFLAGS: 00010206
Aug 31 23:04:59 ronispc kernel: eax: 367c491a   ebx: caf5b940   ecx: c12176ec   
edx: c01d5c58
Aug 31 23:04:59 ronispc kernel: esi: 00000000   edi: c2fd32e0   ebp: caf5b958   
esp: c2a1daec
Aug 31 23:04:59 ronispc kernel: ds: 0018   es: 0018   ss: 0018
Aug 31 23:04:59 ronispc kernel: Process runbench (pid: 24926, process nr: 47, 
stackpage=c2a1d000)
Aug 31 23:04:59 ronispc kernel: Stack: c2fd32e0 c12176fd c01d5c58 c12176ec 
367c491a 00000011 00000013 00000000 
Aug 31 23:04:59 ronispc kernel:        c0214320 c012ef62 c2fd32e0 c2a1db44 
00000000 c011dbaf c1217650 c2fd32e0 
Aug 31 23:04:59 ronispc kernel:        00000000 c12176ec 00000013 c06ef0e0 
00000000 00000001 c12176ec 00000011 
Aug 31 23:04:59 ronispc kernel: Call Trace: [<c012ef62>] [<c011dbaf>] 
[<c013c7d7>] [<c01452b7>] [<c01452a8>] [<c012ed21>] [<c012f0e0>] 
Aug 31 23:04:59 ronispc kernel:        [<c012f2e2>] [<c013747e>] [<c0135eb0>] 
[<c011dbaf>] [<c019deb4>] [<c011f0e8>] [<c012826f>] [<c012d94e>] 
Aug 31 23:04:59 ronispc kernel:        [<c012dfee>] [<c012d57a>] [<c012e2f3>] 
[<c012e31b>] [<c012e233>] [<c0106ba9>] [<c0107d4d>] [<c0107c14>] 
Aug 31 23:04:59 ronispc kernel: Code: 8b 6d 00 8b 44 24 18 39 43 48 75 58 8b 54 
24 30 39 53 0c 75 
>>EIP; c01348d4 <d_lookup+58/d0>   <=====
Trace; c012ef62 <lookup_dentry+14e/384>
Trace; c011dbaf <do_generic_file_read+67b/688>
Trace; c013c7d7 <ext2_permission+8b/f4>
Trace; c01452b7 <ext2_follow_link+67/88>
Trace; c01452a8 <ext2_follow_link+58/88>
Trace; c012ed21 <permission+29/11c>
Trace; c012f0e0 <lookup_dentry+2cc/384>
Trace; c012f2e2 <open_namei+6a/30c>
Trace; c013747e <load_elf_binary+2ee/ae8>
Trace; c0135eb0 <update_atime+64/6c>
Trace; c011dbaf <do_generic_file_read+67b/688>
Trace; c019deb4 <cprt+374/3b05>
Trace; c011f0e8 <file_read_actor+0/50>
Trace; c012826f <init_private_file+6f/80>
Trace; c012d94e <read_exec+122/134>
Trace; c012dfee <search_binary_handler+3e/114>
Trace; c012d57a <copy_strings+8a/1b0>
Trace; c012e2f3 <do_execve+22f/2e4>
Trace; c012e31b <do_execve+257/2e4>
Trace; c012e233 <do_execve+16f/2e4>
Trace; c0106ba9 <sys_execve+35/60>
Trace; c0107d4d <error_code+2d/40>
Trace; c0107c14 <system_call+34/40>
Code;  c01348d4 <d_lookup+58/d0>
00000000 <_EIP>:
Code;  c01348d4 <d_lookup+58/d0>   <=====
   0:   8b 6d 00          movl   0x0(%ebp),%ebp   <=====
Code;  c01348d7 <d_lookup+5b/d0>
   3:   8b 44 24 18       movl   0x18(%esp,1),%eax
Code;  c01348db <d_lookup+5f/d0>
   7:   39 43 48          cmpl   %eax,0x48(%ebx)
Code;  c01348de <d_lookup+62/d0>
   a:   75 58             jne    64 <_EIP+0x64> c0134938 <d_lookup+bc/d0>
Code;  c01348e0 <d_lookup+64/d0>
   c:   8b 54 24 30       movl   0x30(%esp,1),%edx
Code;  c01348e4 <d_lookup+68/d0>
  10:   39 53 0c          cmpl   %edx,0xc(%ebx)
Code;  c01348e7 <d_lookup+6b/d0>
  13:   75 00             jne    15 <_EIP+0x15> c01348e9 <d_lookup+6d/d0>
Aug 31 23:04:59 ronispc kernel: Unable to handle kernel paging request at 
virtual address caf5b958
Aug 31 23:04:59 ronispc kernel: current->tss.cr3 = 02e34000, Lr3 = 02e34000
Aug 31 23:04:59 ronispc kernel: *pde = 00000000
Aug 31 23:04:59 ronispc kernel: Oops: 0000
Aug 31 23:04:59 ronispc kernel: CPU:    0
Aug 31 23:04:59 ronispc kernel: EIP:    0010:[<c01348d4>]
Aug 31 23:04:59 ronispc kernel: EFLAGS: 00010206
Aug 31 23:04:59 ronispc kernel: eax: 367c491a   ebx: caf5b940   ecx: c12176ec   
edx: c01d5c58
Aug 31 23:04:59 ronispc kernel: esi: 00000000   edi: c2fd32e0   ebp: caf5b958   
esp: c2a1daec
Aug 31 23:04:59 ronispc kernel: ds: 0018   es: 0018   ss: 0018
Aug 31 23:04:59 ronispc kernel: Process runbench (pid: 24929, process nr: 47, 
stackpage=c2a1d000)
Aug 31 23:04:59 ronispc kernel: Stack: c2fd32e0 c12176fd c01d5c58 c12176ec 
367c491a 00000011 00000013 00000000 
Aug 31 23:04:59 ronispc kernel:        c0219780 c012ef62 c2fd32e0 c2a1db44 
00000000 c011dbaf c1217650 c2fd32e0 
Aug 31 23:04:59 ronispc kernel:        00000000 c12176ec 00000013 c12e3600 
00000000 00000001 c12176ec 00000011 
Aug 31 23:04:59 ronispc kernel: Call Trace: [<c012ef62>] [<c011dbaf>] 
[<c013c7d7>] [<c01452b7>] [<c01452a8>] [<c012ed21>] [<c012f0e0>] 
Aug 31 23:04:59 ronispc kernel:        [<c012f2e2>] [<c013747e>] [<c0135eb0>] 
[<c011dbaf>] [<c019deb4>] [<c011f0e8>] [<c012826f>] [<c012d94e>] 
Aug 31 23:04:59 ronispc kernel:        [<c012dfee>] [<c012d57a>] [<c012e2f3>] 
[<c012e31b>] [<c012e233>] [<c0106ba9>] [<c0107d4d>] [<c0107c14>] 
Aug 31 23:04:59 ronispc kernel: Code: 8b 6d 00 8b 44 24 18 39 43 48 75 58 8b 54 
24 30 39 53 0c 75 
>>EIP; c01348d4 <d_lookup+58/d0>   <=====
Trace; c012ef62 <lookup_dentry+14e/384>
Trace; c011dbaf <do_generic_file_read+67b/688>
Trace; c013c7d7 <ext2_permission+8b/f4>
Trace; c01452b7 <ext2_follow_link+67/88>
Trace; c01452a8 <ext2_follow_link+58/88>
Trace; c012ed21 <permission+29/11c>
Trace; c012f0e0 <lookup_dentry+2cc/384>
Trace; c012f2e2 <open_namei+6a/30c>
Trace; c013747e <load_elf_binary+2ee/ae8>
Trace; c0135eb0 <update_atime+64/6c>
Trace; c011dbaf <do_generic_file_read+67b/688>
Trace; c019deb4 <cprt+374/3b05>
Trace; c011f0e8 <file_read_actor+0/50>
Trace; c012826f <init_private_file+6f/80>
Trace; c012d94e <read_exec+122/134>
Trace; c012dfee <search_binary_handler+3e/114>
Trace; c012d57a <copy_strings+8a/1b0>
Trace; c012e2f3 <do_execve+22f/2e4>
Trace; c012e31b <do_execve+257/2e4>
Trace; c012e233 <do_execve+16f/2e4>
Trace; c0106ba9 <sys_execve+35/60>
Trace; c0107d4d <error_code+2d/40>
Trace; c0107c14 <system_call+34/40>
Code;  c01348d4 <d_lookup+58/d0>
00000000 <_EIP>:
Code;  c01348d4 <d_lookup+58/d0>   <=====
   0:   8b 6d 00          movl   0x0(%ebp),%ebp   <=====
Code;  c01348d7 <d_lookup+5b/d0>
   3:   8b 44 24 18       movl   0x18(%esp,1),%eax
Code;  c01348db <d_lookup+5f/d0>
   7:   39 43 48          cmpl   %eax,0x48(%ebx)
Code;  c01348de <d_lookup+62/d0>
   a:   75 58             jne    64 <_EIP+0x64> c0134938 <d_lookup+bc/d0>
Code;  c01348e0 <d_lookup+64/d0>
   c:   8b 54 24 30       movl   0x30(%esp,1),%edx
Code;  c01348e4 <d_lookup+68/d0>
  10:   39 53 0c          cmpl   %edx,0xc(%ebx)
Code;  c01348e7 <d_lookup+6b/d0>
  13:   75 00             jne    15 <_EIP+0x15> c01348e9 <d_lookup+6d/d0>
Aug 31 23:04:59 ronispc kernel: Unable to handle kernel paging request at 
virtual address caf5b958
Aug 31 23:04:59 ronispc kernel: current->tss.cr3 = 02e34000, Lr3 = 02e34000
Aug 31 23:04:59 ronispc kernel: *pde = 00000000
Aug 31 23:04:59 ronispc kernel: Oops: 0000
Aug 31 23:04:59 ronispc kernel: CPU:    0
Aug 31 23:04:59 ronispc kernel: EIP:    0010:[<c01348d4>]
Aug 31 23:04:59 ronispc kernel: EFLAGS: 00010206
Aug 31 23:04:59 ronispc kernel: eax: 367c491a   ebx: caf5b940   ecx: c12176ec   
edx: c01d5c58
Aug 31 23:04:59 ronispc kernel: esi: 00000000   edi: c2fd32e0   ebp: caf5b958   
esp: c2a1daec
Aug 31 23:04:59 ronispc kernel: ds: 0018   es: 0018   ss: 0018
Aug 31 23:04:59 ronispc kernel: Process runbench (pid: 24930, process nr: 47, 
stackpage=c2a1d000)
Aug 31 23:04:59 ronispc kernel: Stack: c2fd32e0 c12176fd c01d5c58 c12176ec 
367c491a 00000011 00000013 00000000 
Aug 31 23:04:59 ronispc kernel:        c024ecf0 c012ef62 c2fd32e0 c2a1db44 
00000000 c011dbaf c1217650 c2fd32e0 
Aug 31 23:04:59 ronispc kernel:        00000000 c12176ec 00000013 c134ac00 
00000000 00000001 c12176ec 00000011 
Aug 31 23:04:59 ronispc kernel: Call Trace: [<c012ef62>] [<c011dbaf>] 
[<c013c7d7>] [<c01452b7>] [<c01452a8>] [<c012ed21>] [<c012f0e0>] 
Aug 31 23:04:59 ronispc kernel:        [<c012f2e2>] [<c013747e>] [<c0135eb0>] 
[<c011dbaf>] [<c019deb4>] [<c011f0e8>] [<c012826f>] [<c012d94e>] 
Aug 31 23:04:59 ronispc kernel:        [<c012dfee>] [<c012d57a>] [<c012e2f3>] 
[<c012e31b>] [<c012e233>] [<c0106ba9>] [<c0107d4d>] [<c0107c14>] 
Aug 31 23:04:59 ronispc kernel: Code: 8b 6d 00 8b 44 24 18 39 43 48 75 58 8b 54 
24 30 39 53 0c 75 
>>EIP; c01348d4 <d_lookup+58/d0>   <=====
Trace; c012ef62 <lookup_dentry+14e/384>
Trace; c011dbaf <do_generic_file_read+67b/688>
Trace; c013c7d7 <ext2_permission+8b/f4>
Trace; c01452b7 <ext2_follow_link+67/88>
Trace; c01452a8 <ext2_follow_link+58/88>
Trace; c012ed21 <permission+29/11c>
Trace; c012f0e0 <lookup_dentry+2cc/384>
Trace; c012f2e2 <open_namei+6a/30c>
Trace; c013747e <load_elf_binary+2ee/ae8>
Trace; c0135eb0 <update_atime+64/6c>
Trace; c011dbaf <do_generic_file_read+67b/688>
Trace; c019deb4 <cprt+374/3b05>
Trace; c011f0e8 <file_read_actor+0/50>
Trace; c012826f <init_private_file+6f/80>
Trace; c012d94e <read_exec+122/134>
Trace; c012dfee <search_binary_handler+3e/114>
Trace; c012d57a <copy_strings+8a/1b0>
Trace; c012e2f3 <do_execve+22f/2e4>
Trace; c012e31b <do_execve+257/2e4>
Trace; c012e233 <do_execve+16f/2e4>
Trace; c0106ba9 <sys_execve+35/60>
Trace; c0107d4d <error_code+2d/40>
Trace; c0107c14 <system_call+34/40>
Code;  c01348d4 <d_lookup+58/d0>
00000000 <_EIP>:
Code;  c01348d4 <d_lookup+58/d0>   <=====
   0:   8b 6d 00          movl   0x0(%ebp),%ebp   <=====
Code;  c01348d7 <d_lookup+5b/d0>
   3:   8b 44 24 18       movl   0x18(%esp,1),%eax
Code;  c01348db <d_lookup+5f/d0>
   7:   39 43 48          cmpl   %eax,0x48(%ebx)
Code;  c01348de <d_lookup+62/d0>
   a:   75 58             jne    64 <_EIP+0x64> c0134938 <d_lookup+bc/d0>
Code;  c01348e0 <d_lookup+64/d0>
   c:   8b 54 24 30       movl   0x30(%esp,1),%edx
Code;  c01348e4 <d_lookup+68/d0>
  10:   39 53 0c          cmpl   %edx,0xc(%ebx)
Code;  c01348e7 <d_lookup+6b/d0>
  13:   75 00             jne    15 <_EIP+0x15> c01348e9 <d_lookup+6d/d0>
Aug 31 23:04:59 ronispc kernel: Unable to handle kernel paging request at 
virtual address caf5b958
Aug 31 23:04:59 ronispc kernel: current->tss.cr3 = 02e34000, Lr3 = 02e34000
Aug 31 23:04:59 ronispc kernel: *pde = 00000000
Aug 31 23:04:59 ronispc kernel: Oops: 0000
Aug 31 23:04:59 ronispc kernel: CPU:    0
Aug 31 23:04:59 ronispc kernel: EIP:    0010:[<c01348d4>]
Aug 31 23:04:59 ronispc kernel: EFLAGS: 00010206
Aug 31 23:04:59 ronispc kernel: eax: 367c491a   ebx: caf5b940   ecx: c12176ec   
edx: c01d5c58
Aug 31 23:04:59 ronispc kernel: esi: 00000000   edi: c2fd32e0   ebp: caf5b958   
esp: c2a1daec
Aug 31 23:04:59 ronispc kernel: ds: 0018   es: 0018   ss: 0018
Aug 31 23:04:59 ronispc kernel: Process runbench (pid: 24931, process nr: 47, 
stackpage=c2a1d000)
Aug 31 23:04:59 ronispc kernel: Stack: c2fd32e0 c12176fd c01d5c58 c12176ec 
367c491a 00000011 00000013 00000000 
Aug 31 23:04:59 ronispc kernel:        c0219780 c012ef62 c2fd32e0 c2a1db44 
00000000 c011dbaf c1217650 c2fd32e0 
Aug 31 23:04:59 ronispc kernel:        00000000 c12176ec 00000013 c134aac0 
00000000 00000001 c12176ec 00000011 
Aug 31 23:04:59 ronispc kernel: Call Trace: [<c012ef62>] [<c011dbaf>] 
[<c013c7d7>] [<c01452b7>] [<c01452a8>] [<c012ed21>] [<c012f0e0>] 
Aug 31 23:04:59 ronispc kernel:        [<c012f2e2>] [<c013747e>] [<c0135eb0>] 
[<c011dbaf>] [<c019deb4>] [<c011f0e8>] [<c012826f>] [<c012d94e>] 
Aug 31 23:04:59 ronispc kernel:        [<c012dfee>] [<c012d57a>] [<c012e2f3>] 
[<c012e31b>] [<c012e233>] [<c0106ba9>] [<c0107d4d>] [<c0107c14>] 
Aug 31 23:04:59 ronispc kernel: Code: 8b 6d 00 8b 44 24 18 39 43 48 75 58 8b 54 
24 30 39 53 0c 75 
>>EIP; c01348d4 <d_lookup+58/d0>   <=====
Trace; c012ef62 <lookup_dentry+14e/384>
Trace; c011dbaf <do_generic_file_read+67b/688>
Trace; c013c7d7 <ext2_permission+8b/f4>
Trace; c01452b7 <ext2_follow_link+67/88>
Trace; c01452a8 <ext2_follow_link+58/88>
Trace; c012ed21 <permission+29/11c>
Trace; c012f0e0 <lookup_dentry+2cc/384>
Trace; c012f2e2 <open_namei+6a/30c>
Trace; c013747e <load_elf_binary+2ee/ae8>
Trace; c0135eb0 <update_atime+64/6c>
Trace; c011dbaf <do_generic_file_read+67b/688>
Trace; c019deb4 <cprt+374/3b05>
Trace; c011f0e8 <file_read_actor+0/50>
Trace; c012826f <init_private_file+6f/80>
Trace; c012d94e <read_exec+122/134>
Trace; c012dfee <search_binary_handler+3e/114>
Trace; c012d57a <copy_strings+8a/1b0>
Trace; c012e2f3 <do_execve+22f/2e4>
Trace; c012e31b <do_execve+257/2e4>
Trace; c012e233 <do_execve+16f/2e4>
Trace; c0106ba9 <sys_execve+35/60>
Trace; c0107d4d <error_code+2d/40>
Trace; c0107c14 <system_call+34/40>
Code;  c01348d4 <d_lookup+58/d0>
00000000 <_EIP>:
Code;  c01348d4 <d_lookup+58/d0>   <=====
   0:   8b 6d 00          movl   0x0(%ebp),%ebp   <=====
Code;  c01348d7 <d_lookup+5b/d0>
   3:   8b 44 24 18       movl   0x18(%esp,1),%eax
Code;  c01348db <d_lookup+5f/d0>
   7:   39 43 48          cmpl   %eax,0x48(%ebx)
Code;  c01348de <d_lookup+62/d0>
   a:   75 58             jne    64 <_EIP+0x64> c0134938 <d_lookup+bc/d0>
Code;  c01348e0 <d_lookup+64/d0>
   c:   8b 54 24 30       movl   0x30(%esp,1),%edx
Code;  c01348e4 <d_lookup+68/d0>
  10:   39 53 0c          cmpl   %edx,0xc(%ebx)
Code;  c01348e7 <d_lookup+6b/d0>
  13:   75 00             jne    15 <_EIP+0x15> c01348e9 <d_lookup+6d/d0>
Aug 31 23:04:59 ronispc kernel: Unable to handle kernel paging request at 
virtual address caf5b958
Aug 31 23:04:59 ronispc kernel: current->tss.cr3 = 0187f000, Lr3 = 0187f000
Aug 31 23:04:59 ronispc kernel: *pde = 00000000
Aug 31 23:04:59 ronispc kernel: Oops: 0000
Aug 31 23:04:59 ronispc kernel: CPU:    0
Aug 31 23:04:59 ronispc kernel: EIP:    0010:[<c01348d4>]
Aug 31 23:04:59 ronispc kernel: EFLAGS: 00010206
Aug 31 23:04:59 ronispc kernel: eax: 367c491a   ebx: caf5b940   ecx: c12176ec   
edx: c01d5c58
Aug 31 23:04:59 ronispc kernel: esi: 00000000   edi: c2fd32e0   ebp: caf5b958   
esp: c1b03aec
Aug 31 23:04:59 ronispc kernel: ds: 0018   es: 0018   ss: 0018
Aug 31 23:04:59 ronispc kernel: Process runbench (pid: 24934, process nr: 41, 
stackpage=c1b03000)
Aug 31 23:04:59 ronispc kernel: Stack: c2fd32e0 c12176fd c01d5c58 c12176ec 
367c491a 00000011 00000013 00000000 
Aug 31 23:04:59 ronispc kernel:        c024ecf0 c012ef62 c2fd32e0 c1b03b44 
00000000 c011dbaf c1217650 c2fd32e0 
Aug 31 23:04:59 ronispc kernel:        00000000 c12176ec 00000013 c12a6d80 
00000000 00000001 c12176ec 00000011 
Aug 31 23:04:59 ronispc kernel: Call Trace: [<c012ef62>] [<c011dbaf>] 
[<c013c7d7>] [<c01452b7>] [<c01452a8>] [<c012ed21>] [<c012f0e0>] 
Aug 31 23:04:59 ronispc kernel:        [<c012f2e2>] [<c013747e>] [<c011dbaf>] 
[<c019deb4>] [<c011f0e8>] [<c012826f>] [<c012d94e>] [<c012dfee>] 
Aug 31 23:04:59 ronispc kernel:        [<c012d57a>] [<c012e2f3>] [<c012e31b>] 
[<c012e233>] [<c0106ba9>] [<c0107d4d>] [<c0107c14>] 
Aug 31 23:04:59 ronispc kernel: Code: 8b 6d 00 8b 44 24 18 39 43 48 75 58 8b 54 
24 30 39 53 0c 75 
>>EIP; c01348d4 <d_lookup+58/d0>   <=====
Trace; c012ef62 <lookup_dentry+14e/384>
Trace; c011dbaf <do_generic_file_read+67b/688>
Trace; c013c7d7 <ext2_permission+8b/f4>
Trace; c01452b7 <ext2_follow_link+67/88>
Trace; c01452a8 <ext2_follow_link+58/88>
Trace; c012ed21 <permission+29/11c>
Trace; c012f0e0 <lookup_dentry+2cc/384>
Trace; c012f2e2 <open_namei+6a/30c>
Trace; c013747e <load_elf_binary+2ee/ae8>
Trace; c011dbaf <do_generic_file_read+67b/688>
Trace; c019deb4 <cprt+374/3b05>
Trace; c011f0e8 <file_read_actor+0/50>
Trace; c012826f <init_private_file+6f/80>
Trace; c012d94e <read_exec+122/134>
Trace; c012dfee <search_binary_handler+3e/114>
Trace; c012d57a <copy_strings+8a/1b0>
Trace; c012e2f3 <do_execve+22f/2e4>
Trace; c012e31b <do_execve+257/2e4>
Trace; c012e233 <do_execve+16f/2e4>
Trace; c0106ba9 <sys_execve+35/60>
Trace; c0107d4d <error_code+2d/40>
Trace; c0107c14 <system_call+34/40>
Code;  c01348d4 <d_lookup+58/d0>
00000000 <_EIP>:
Code;  c01348d4 <d_lookup+58/d0>   <=====
   0:   8b 6d 00          movl   0x0(%ebp),%ebp   <=====
Code;  c01348d7 <d_lookup+5b/d0>
   3:   8b 44 24 18       movl   0x18(%esp,1),%eax
Code;  c01348db <d_lookup+5f/d0>
   7:   39 43 48          cmpl   %eax,0x48(%ebx)
Code;  c01348de <d_lookup+62/d0>
   a:   75 58             jne    64 <_EIP+0x64> c0134938 <d_lookup+bc/d0>
Code;  c01348e0 <d_lookup+64/d0>
   c:   8b 54 24 30       movl   0x30(%esp,1),%edx
Code;  c01348e4 <d_lookup+68/d0>
  10:   39 53 0c          cmpl   %edx,0xc(%ebx)
Code;  c01348e7 <d_lookup+6b/d0>
  13:   75 00             jne    15 <_EIP+0x15> c01348e9 <d_lookup+6d/d0>
Aug 31 23:05:00 ronispc kernel: Unable to handle kernel paging request at 
virtual address caf5b958
Aug 31 23:05:00 ronispc kernel: current->tss.cr3 = 0187f000, Lr3 = 0187f000
Aug 31 23:05:00 ronispc kernel: *pde = 00000000
Aug 31 23:05:00 ronispc kernel: Oops: 0000
Aug 31 23:05:00 ronispc kernel: CPU:    0
Aug 31 23:05:00 ronispc kernel: EIP:    0010:[<c01348d4>]
Aug 31 23:05:00 ronispc kernel: EFLAGS: 00010206
Aug 31 23:05:00 ronispc kernel: eax: 367c491a   ebx: caf5b940   ecx: c12176ec   
edx: c01d5c58
Aug 31 23:05:00 ronispc kernel: esi: 00000000   edi: c2fd32e0   ebp: caf5b958   
esp: c1b03aec
Aug 31 23:05:00 ronispc kernel: ds: 0018   es: 0018   ss: 0018
Aug 31 23:05:00 ronispc kernel: Process runbench (pid: 24935, process nr: 41, 
stackpage=c1b03000)
Aug 31 23:05:00 ronispc kernel: Stack: c2fd32e0 c12176fd c01d5c58 c12176ec 
367c491a 00000011 00000013 00000000 
Aug 31 23:05:00 ronispc kernel:        c0219780 c012ef62 c2fd32e0 c1b03b44 
00000000 c011dbaf c1217650 c2fd32e0 
Aug 31 23:05:00 ronispc kernel:        00000000 c12176ec 00000013 c1ab4960 
00000000 00000001 c12176ec 00000011 
Aug 31 23:05:00 ronispc kernel: Call Trace: [<c012ef62>] [<c011dbaf>] 
[<c013c7d7>] [<c01452b7>] [<c01452a8>] [<c012ed21>] [<c012f0e0>] 
Aug 31 23:05:00 ronispc kernel:        [<c012f2e2>] [<c013747e>] [<c011dbaf>] 
[<c019deb4>] [<c011f0e8>] [<c012826f>] [<c012d94e>] [<c012dfee>] 
Aug 31 23:05:00 ronispc kernel:        [<c012d57a>] [<c012e2f3>] [<c012e31b>] 
[<c012e233>] [<c0106ba9>] [<c0107d4d>] [<c0107c14>] 
Aug 31 23:05:00 ronispc kernel: Code: 8b 6d 00 8b 44 24 18 39 43 48 75 58 8b 54 
24 30 39 53 0c 75 
>>EIP; c01348d4 <d_lookup+58/d0>   <=====
Trace; c012ef62 <lookup_dentry+14e/384>
Trace; c011dbaf <do_generic_file_read+67b/688>
Trace; c013c7d7 <ext2_permission+8b/f4>
Trace; c01452b7 <ext2_follow_link+67/88>
Trace; c01452a8 <ext2_follow_link+58/88>
Trace; c012ed21 <permission+29/11c>
Trace; c012f0e0 <lookup_dentry+2cc/384>
Trace; c012f2e2 <open_namei+6a/30c>
Trace; c013747e <load_elf_binary+2ee/ae8>
Trace; c011dbaf <do_generic_file_read+67b/688>
Trace; c019deb4 <cprt+374/3b05>
Trace; c011f0e8 <file_read_actor+0/50>
Trace; c012826f <init_private_file+6f/80>
Trace; c012d94e <read_exec+122/134>
Trace; c012dfee <search_binary_handler+3e/114>
Trace; c012d57a <copy_strings+8a/1b0>
Trace; c012e2f3 <do_execve+22f/2e4>
Trace; c012e31b <do_execve+257/2e4>
Trace; c012e233 <do_execve+16f/2e4>
Trace; c0106ba9 <sys_execve+35/60>
Trace; c0107d4d <error_code+2d/40>
Trace; c0107c14 <system_call+34/40>
Code;  c01348d4 <d_lookup+58/d0>
00000000 <_EIP>:
Code;  c01348d4 <d_lookup+58/d0>   <=====
   0:   8b 6d 00          movl   0x0(%ebp),%ebp   <=====
Code;  c01348d7 <d_lookup+5b/d0>
   3:   8b 44 24 18       movl   0x18(%esp,1),%eax
Code;  c01348db <d_lookup+5f/d0>
   7:   39 43 48          cmpl   %eax,0x48(%ebx)
Code;  c01348de <d_lookup+62/d0>
   a:   75 58             jne    64 <_EIP+0x64> c0134938 <d_lookup+bc/d0>
Code;  c01348e0 <d_lookup+64/d0>
   c:   8b 54 24 30       movl   0x30(%esp,1),%edx
Code;  c01348e4 <d_lookup+68/d0>
  10:   39 53 0c          cmpl   %edx,0xc(%ebx)
Code;  c01348e7 <d_lookup+6b/d0>
  13:   75 00             jne    15 <_EIP+0x15> c01348e9 <d_lookup+6d/d0>
Aug 31 23:05:00 ronispc kernel: Unable to handle kernel paging request at 
virtual address caf5b958
Aug 31 23:05:00 ronispc kernel: current->tss.cr3 = 0187f000, Lr3 = 0187f000
Aug 31 23:05:00 ronispc kernel: *pde = 00000000
Aug 31 23:05:00 ronispc kernel: Oops: 0000
Aug 31 23:05:00 ronispc kernel: CPU:    0
Aug 31 23:05:00 ronispc kernel: EIP:    0010:[<c01348d4>]
Aug 31 23:05:00 ronispc kernel: EFLAGS: 00010206
Aug 31 23:05:00 ronispc kernel: eax: 367c491a   ebx: caf5b940   ecx: c12176ec   
edx: c01d5c58
Aug 31 23:05:00 ronispc kernel: esi: 00000000   edi: c2fd32e0   ebp: caf5b958   
esp: c2a1daec
Aug 31 23:05:00 ronispc kernel: ds: 0018   es: 0018   ss: 0018
Aug 31 23:05:00 ronispc kernel: Process runbench (pid: 24938, process nr: 47, 
stackpage=c2a1d000)
Aug 31 23:05:00 ronispc kernel: Stack: c2fd32e0 c12176fd c01d5c58 c12176ec 
367c491a 00000011 00000013 00000000 
Aug 31 23:05:00 ronispc kernel:        c024ecf0 c012ef62 c2fd32e0 c2a1db44 
00000000 c011dbaf c1217650 c2fd32e0 
Aug 31 23:05:00 ronispc kernel:        00000000 c12176ec 00000013 c1ab4a60 
00000000 00000001 c12176ec 00000011 
Aug 31 23:05:00 ronispc kernel: Call Trace: [<c012ef62>] [<c011dbaf>] 
[<c013c7d7>] [<c01452b7>] [<c01452a8>] [<c012ed21>] [<c012f0e0>] 
Aug 31 23:05:00 ronispc kernel:        [<c012f2e2>] [<c013747e>] [<c0135eb0>] 
[<c011dbaf>] [<c019deb4>] [<c011f0e8>] [<c012826f>] [<c012d94e>] 
Aug 31 23:05:00 ronispc kernel:        [<c012dfee>] [<c012d57a>] [<c012e2f3>] 
[<c012e31b>] [<c012e233>] [<c0106ba9>] [<c0107d4d>] [<c0107c14>] 
Aug 31 23:05:00 ronispc kernel: Code: 8b 6d 00 8b 44 24 18 39 43 48 75 58 8b 54 
24 30 39 53 0c 75 
>>EIP; c01348d4 <d_lookup+58/d0>   <=====
Trace; c012ef62 <lookup_dentry+14e/384>
Trace; c011dbaf <do_generic_file_read+67b/688>
Trace; c013c7d7 <ext2_permission+8b/f4>
Trace; c01452b7 <ext2_follow_link+67/88>
Trace; c01452a8 <ext2_follow_link+58/88>
Trace; c012ed21 <permission+29/11c>
Trace; c012f0e0 <lookup_dentry+2cc/384>
Trace; c012f2e2 <open_namei+6a/30c>
Trace; c013747e <load_elf_binary+2ee/ae8>
Trace; c0135eb0 <update_atime+64/6c>
Trace; c011dbaf <do_generic_file_read+67b/688>
Trace; c019deb4 <cprt+374/3b05>
Trace; c011f0e8 <file_read_actor+0/50>
Trace; c012826f <init_private_file+6f/80>
Trace; c012d94e <read_exec+122/134>
Trace; c012dfee <search_binary_handler+3e/114>
Trace; c012d57a <copy_strings+8a/1b0>
Trace; c012e2f3 <do_execve+22f/2e4>
Trace; c012e31b <do_execve+257/2e4>
Trace; c012e233 <do_execve+16f/2e4>
Trace; c0106ba9 <sys_execve+35/60>
Trace; c0107d4d <error_code+2d/40>
Trace; c0107c14 <system_call+34/40>
Code;  c01348d4 <d_lookup+58/d0>
00000000 <_EIP>:
Code;  c01348d4 <d_lookup+58/d0>   <=====
   0:   8b 6d 00          movl   0x0(%ebp),%ebp   <=====
Code;  c01348d7 <d_lookup+5b/d0>
   3:   8b 44 24 18       movl   0x18(%esp,1),%eax
Code;  c01348db <d_lookup+5f/d0>
   7:   39 43 48          cmpl   %eax,0x48(%ebx)
Code;  c01348de <d_lookup+62/d0>
   a:   75 58             jne    64 <_EIP+0x64> c0134938 <d_lookup+bc/d0>
Code;  c01348e0 <d_lookup+64/d0>
   c:   8b 54 24 30       movl   0x30(%esp,1),%edx
Code;  c01348e4 <d_lookup+68/d0>
  10:   39 53 0c          cmpl   %edx,0xc(%ebx)
Code;  c01348e7 <d_lookup+6b/d0>
  13:   75 00             jne    15 <_EIP+0x15> c01348e9 <d_lookup+6d/d0>
Aug 31 23:05:00 ronispc kernel: Unable to handle kernel paging request at 
virtual address caf5b958
Aug 31 23:05:00 ronispc kernel: current->tss.cr3 = 0187f000, Lr3 = 0187f000
Aug 31 23:05:00 ronispc kernel: *pde = 00000000
Aug 31 23:05:00 ronispc kernel: Oops: 0000
Aug 31 23:05:00 ronispc kernel: CPU:    0
Aug 31 23:05:00 ronispc kernel: EIP:    0010:[<c01348d4>]
Aug 31 23:05:00 ronispc kernel: EFLAGS: 00010206
Aug 31 23:05:00 ronispc kernel: eax: 367c491a   ebx: caf5b940   ecx: c12176ec   
edx: c01d5c58
Aug 31 23:05:00 ronispc kernel: esi: 00000000   edi: c2fd32e0   ebp: caf5b958   
esp: c2a1daec
Aug 31 23:05:00 ronispc kernel: ds: 0018   es: 0018   ss: 0018
Aug 31 23:05:00 ronispc kernel: Process runbench (pid: 24939, process nr: 47, 
stackpage=c2a1d000)
Aug 31 23:05:00 ronispc kernel: Stack: c2fd32e0 c12176fd c01d5c58 c12176ec 
367c491a 00000011 00000013 00000000 
Aug 31 23:05:00 ronispc kernel:        c0219780 c012ef62 c2fd32e0 c2a1db44 
00000000 c011dbaf c1217650 c2fd32e0 
Aug 31 23:05:00 ronispc kernel:        00000000 c12176ec 00000013 c1ab4620 
00000000 00000001 c12176ec 00000011 
Aug 31 23:05:00 ronispc kernel: Call Trace: [<c012ef62>] [<c011dbaf>] 
[<c013c7d7>] [<c01452b7>] [<c01452a8>] [<c012ed21>] [<c012f0e0>] 
Aug 31 23:05:00 ronispc kernel:        [<c012f2e2>] [<c013747e>] [<c0135eb0>] 
[<c011dbaf>] [<c019deb4>] [<c011f0e8>] [<c012826f>] [<c012d94e>] 
Aug 31 23:05:00 ronispc kernel:        [<c012dfee>] [<c012d57a>] [<c012e2f3>] 
[<c012e31b>] [<c012e233>] [<c0106ba9>] [<c0107d4d>] [<c0107c14>] 
Aug 31 23:05:00 ronispc kernel: Code: 8b 6d 00 8b 44 24 18 39 43 48 75 58 8b 54 
24 30 39 53 0c 75 
>>EIP; c01348d4 <d_lookup+58/d0>   <=====
Trace; c012ef62 <lookup_dentry+14e/384>
Trace; c011dbaf <do_generic_file_read+67b/688>
Trace; c013c7d7 <ext2_permission+8b/f4>
Trace; c01452b7 <ext2_follow_link+67/88>
Trace; c01452a8 <ext2_follow_link+58/88>
Trace; c012ed21 <permission+29/11c>
Trace; c012f0e0 <lookup_dentry+2cc/384>
Trace; c012f2e2 <open_namei+6a/30c>
Trace; c013747e <load_elf_binary+2ee/ae8>
Trace; c0135eb0 <update_atime+64/6c>
Trace; c011dbaf <do_generic_file_read+67b/688>
Trace; c019deb4 <cprt+374/3b05>
Trace; c011f0e8 <file_read_actor+0/50>
Trace; c012826f <init_private_file+6f/80>
Trace; c012d94e <read_exec+122/134>
Trace; c012dfee <search_binary_handler+3e/114>
Trace; c012d57a <copy_strings+8a/1b0>
Trace; c012e2f3 <do_execve+22f/2e4>
Trace; c012e31b <do_execve+257/2e4>
Trace; c012e233 <do_execve+16f/2e4>
Trace; c0106ba9 <sys_execve+35/60>
Trace; c0107d4d <error_code+2d/40>
Trace; c0107c14 <system_call+34/40>
Code;  c01348d4 <d_lookup+58/d0>
00000000 <_EIP>:
Code;  c01348d4 <d_lookup+58/d0>   <=====
   0:   8b 6d 00          movl   0x0(%ebp),%ebp   <=====
Code;  c01348d7 <d_lookup+5b/d0>
   3:   8b 44 24 18       movl   0x18(%esp,1),%eax
Code;  c01348db <d_lookup+5f/d0>
   7:   39 43 48          cmpl   %eax,0x48(%ebx)
Code;  c01348de <d_lookup+62/d0>
   a:   75 58             jne    64 <_EIP+0x64> c0134938 <d_lookup+bc/d0>
Code;  c01348e0 <d_lookup+64/d0>
   c:   8b 54 24 30       movl   0x30(%esp,1),%edx
Code;  c01348e4 <d_lookup+68/d0>
  10:   39 53 0c          cmpl   %edx,0xc(%ebx)
Code;  c01348e7 <d_lookup+6b/d0>
  13:   75 00             jne    15 <_EIP+0x15> c01348e9 <d_lookup+6d/d0>
Aug 31 23:05:00 ronispc kernel: Unable to handle kernel paging request at 
virtual address caf5b958
Aug 31 23:05:00 ronispc kernel: current->tss.cr3 = 02e34000, Lr3 = 02e34000
Aug 31 23:05:00 ronispc kernel: *pde = 00000000
Aug 31 23:05:00 ronispc kernel: Oops: 0000
Aug 31 23:05:00 ronispc kernel: CPU:    0
Aug 31 23:05:00 ronispc kernel: EIP:    0010:[<c01348d4>]
Aug 31 23:05:00 ronispc kernel: EFLAGS: 00010206
Aug 31 23:05:00 ronispc kernel: eax: 367c491a   ebx: caf5b940   ecx: c12176ec   
edx: c01d5c58
Aug 31 23:05:00 ronispc kernel: esi: 00000000   edi: c2fd32e0   ebp: caf5b958   
esp: c1b03aec
Aug 31 23:05:00 ronispc kernel: ds: 0018   es: 0018   ss: 0018
Aug 31 23:05:00 ronispc kernel: Process runbench (pid: 24942, process nr: 41, 
stackpage=c1b03000)
Aug 31 23:05:00 ronispc kernel: Stack: c2fd32e0 c12176fd c01d5c58 c12176ec 
367c491a 00000011 00000013 00000000 
Aug 31 23:05:00 ronispc kernel:        c024ecf0 c012ef62 c2fd32e0 c1b03b44 
00000000 c011dbaf c1217650 c2fd32e0 
Aug 31 23:05:00 ronispc kernel:        00000000 c12176ec 00000013 c1ab4ae0 
00000000 00000001 c12176ec 00000011 
Aug 31 23:05:00 ronispc kernel: Call Trace: [<c012ef62>] [<c011dbaf>] 
[<c013c7d7>] [<c01452b7>] [<c01452a8>] [<c012ed21>] [<c012f0e0>] 
Aug 31 23:05:00 ronispc kernel:        [<c012f2e2>] [<c013747e>] [<c011dbaf>] 
[<c019deb4>] [<c011f0e8>] [<c012826f>] [<c012d94e>] [<c012dfee>] 
Aug 31 23:05:00 ronispc kernel:        [<c012d57a>] [<c012e2f3>] [<c012e31b>] 
[<c012e233>] [<c0106ba9>] [<c0107d4d>] [<c0107c14>] 
Aug 31 23:05:00 ronispc kernel: Code: 8b 6d 00 8b 44 24 18 39 43 48 75 58 8b 54 
24 30 39 53 0c 75 
>>EIP; c01348d4 <d_lookup+58/d0>   <=====
Trace; c012ef62 <lookup_dentry+14e/384>
Trace; c011dbaf <do_generic_file_read+67b/688>
Trace; c013c7d7 <ext2_permission+8b/f4>
Trace; c01452b7 <ext2_follow_link+67/88>
Trace; c01452a8 <ext2_follow_link+58/88>
Trace; c012ed21 <permission+29/11c>
Trace; c012f0e0 <lookup_dentry+2cc/384>
Trace; c012f2e2 <open_namei+6a/30c>
Trace; c013747e <load_elf_binary+2ee/ae8>
Trace; c011dbaf <do_generic_file_read+67b/688>
Trace; c019deb4 <cprt+374/3b05>
Trace; c011f0e8 <file_read_actor+0/50>
Trace; c012826f <init_private_file+6f/80>
Trace; c012d94e <read_exec+122/134>
Trace; c012dfee <search_binary_handler+3e/114>
Trace; c012d57a <copy_strings+8a/1b0>
Trace; c012e2f3 <do_execve+22f/2e4>
Trace; c012e31b <do_execve+257/2e4>
Trace; c012e233 <do_execve+16f/2e4>
Trace; c0106ba9 <sys_execve+35/60>
Trace; c0107d4d <error_code+2d/40>
Trace; c0107c14 <system_call+34/40>
Code;  c01348d4 <d_lookup+58/d0>
00000000 <_EIP>:
Code;  c01348d4 <d_lookup+58/d0>   <=====
   0:   8b 6d 00          movl   0x0(%ebp),%ebp   <=====
Code;  c01348d7 <d_lookup+5b/d0>
   3:   8b 44 24 18       movl   0x18(%esp,1),%eax
Code;  c01348db <d_lookup+5f/d0>
   7:   39 43 48          cmpl   %eax,0x48(%ebx)
Code;  c01348de <d_lookup+62/d0>
   a:   75 58             jne    64 <_EIP+0x64> c0134938 <d_lookup+bc/d0>
Code;  c01348e0 <d_lookup+64/d0>
   c:   8b 54 24 30       movl   0x30(%esp,1),%edx
Code;  c01348e4 <d_lookup+68/d0>
  10:   39 53 0c          cmpl   %edx,0xc(%ebx)
Code;  c01348e7 <d_lookup+6b/d0>
  13:   75 00             jne    15 <_EIP+0x15> c01348e9 <d_lookup+6d/d0>
Aug 31 23:05:00 ronispc kernel: Unable to handle kernel paging request at 
virtual address caf5b958
Aug 31 23:05:00 ronispc kernel: current->tss.cr3 = 02e34000, Lr3 = 02e34000
Aug 31 23:05:00 ronispc kernel: *pde = 00000000
Aug 31 23:05:00 ronispc kernel: Oops: 0000
Aug 31 23:05:00 ronispc kernel: CPU:    0
Aug 31 23:05:00 ronispc kernel: EIP:    0010:[<c01348d4>]
Aug 31 23:05:00 ronispc kernel: EFLAGS: 00010206
Aug 31 23:05:00 ronispc kernel: eax: 367c491a   ebx: caf5b940   ecx: c12176ec   
edx: c01d5c58
Aug 31 23:05:00 ronispc kernel: esi: 00000000   edi: c2fd32e0   ebp: caf5b958   
esp: c1b03aec
Aug 31 23:05:00 ronispc kernel: ds: 0018   es: 0018   ss: 0018
Aug 31 23:05:00 ronispc kernel: Process runbench (pid: 24943, process nr: 41, 
stackpage=c1b03000)
Aug 31 23:05:00 ronispc kernel: Stack: c2fd32e0 c12176fd c01d5c58 c12176ec 
367c491a 00000011 00000013 00000000 
Aug 31 23:05:00 ronispc kernel:        c0219780 c012ef62 c2fd32e0 c1b03b44 
00000000 c011dbaf c1217650 c2fd32e0 
Aug 31 23:05:00 ronispc kernel:        00000000 c12176ec 00000013 c1ab4f20 
00000000 00000001 c12176ec 00000011 
Aug 31 23:05:00 ronispc kernel: Call Trace: [<c012ef62>] [<c011dbaf>] 
[<c013c7d7>] [<c01452b7>] [<c01452a8>] [<c012ed21>] [<c012f0e0>] 
Aug 31 23:05:00 ronispc kernel:        [<c012f2e2>] [<c013747e>] [<c011dbaf>] 
[<c019deb4>] [<c011f0e8>] [<c012826f>] [<c012d94e>] [<c012dfee>] 
Aug 31 23:05:00 ronispc kernel:        [<c012d57a>] [<c012e2f3>] [<c012e31b>] 
[<c012e233>] [<c0106ba9>] [<c0107d4d>] [<c0107c14>] 
Aug 31 23:05:00 ronispc kernel: Code: 8b 6d 00 8b 44 24 18 39 43 48 75 58 8b 54 
24 30 39 53 0c 75 
>>EIP; c01348d4 <d_lookup+58/d0>   <=====
Trace; c012ef62 <lookup_dentry+14e/384>
Trace; c011dbaf <do_generic_file_read+67b/688>
Trace; c013c7d7 <ext2_permission+8b/f4>
Trace; c01452b7 <ext2_follow_link+67/88>
Trace; c01452a8 <ext2_follow_link+58/88>
Trace; c012ed21 <permission+29/11c>
Trace; c012f0e0 <lookup_dentry+2cc/384>
Trace; c012f2e2 <open_namei+6a/30c>
Trace; c013747e <load_elf_binary+2ee/ae8>
Trace; c011dbaf <do_generic_file_read+67b/688>
Trace; c019deb4 <cprt+374/3b05>
Trace; c011f0e8 <file_read_actor+0/50>
Trace; c012826f <init_private_file+6f/80>
Trace; c012d94e <read_exec+122/134>
Trace; c012dfee <search_binary_handler+3e/114>
Trace; c012d57a <copy_strings+8a/1b0>
Trace; c012e2f3 <do_execve+22f/2e4>
Trace; c012e31b <do_execve+257/2e4>
Trace; c012e233 <do_execve+16f/2e4>
Trace; c0106ba9 <sys_execve+35/60>
Trace; c0107d4d <error_code+2d/40>
Trace; c0107c14 <system_call+34/40>
Code;  c01348d4 <d_lookup+58/d0>
00000000 <_EIP>:
Code;  c01348d4 <d_lookup+58/d0>   <=====
   0:   8b 6d 00          movl   0x0(%ebp),%ebp   <=====
Code;  c01348d7 <d_lookup+5b/d0>
   3:   8b 44 24 18       movl   0x18(%esp,1),%eax
Code;  c01348db <d_lookup+5f/d0>
   7:   39 43 48          cmpl   %eax,0x48(%ebx)
Code;  c01348de <d_lookup+62/d0>
   a:   75 58             jne    64 <_EIP+0x64> c0134938 <d_lookup+bc/d0>
Code;  c01348e0 <d_lookup+64/d0>
   c:   8b 54 24 30       movl   0x30(%esp,1),%edx
Code;  c01348e4 <d_lookup+68/d0>
  10:   39 53 0c          cmpl   %edx,0xc(%ebx)
Code;  c01348e7 <d_lookup+6b/d0>
  13:   75 00             jne    15 <_EIP+0x15> c01348e9 <d_lookup+6d/d0>
Aug 31 23:05:00 ronispc kernel: Unable to handle kernel paging request at 
virtual address caf5b958
Aug 31 23:05:00 ronispc kernel: current->tss.cr3 = 02e34000, Lr3 = 02e34000
Aug 31 23:05:00 ronispc kernel: *pde = 00000000
Aug 31 23:05:00 ronispc kernel: Oops: 0000
Aug 31 23:05:00 ronispc kernel: CPU:    0
Aug 31 23:05:00 ronispc kernel: EIP:    0010:[<c01348d4>]
Aug 31 23:05:00 ronispc kernel: EFLAGS: 00010206
Aug 31 23:05:00 ronispc kernel: eax: 367c491a   ebx: caf5b940   ecx: c12176ec   
edx: c01d5c58
Aug 31 23:05:00 ronispc kernel: esi: 00000000   edi: c2fd32e0   ebp: caf5b958   
esp: c1b03aec
Aug 31 23:05:00 ronispc kernel: ds: 0018   es: 0018   ss: 0018
Aug 31 23:05:00 ronispc kernel: Process runbench (pid: 24946, process nr: 41, 
stackpage=c1b03000)
Aug 31 23:05:00 ronispc kernel: Stack: c2fd32e0 c12176fd c01d5c58 c12176ec 
367c491a 00000011 00000013 00000000 
Aug 31 23:05:00 ronispc kernel:        c024ecf0 c012ef62 c2fd32e0 c1b03b44 
00000000 c011dbaf c1217650 c2fd32e0 
Aug 31 23:05:00 ronispc kernel:        00000000 c12176ec 00000013 c1ab44e0 
00000000 00000001 c12176ec 00000011 
Aug 31 23:05:00 ronispc kernel: Call Trace: [<c012ef62>] [<c011dbaf>] 
[<c013c7d7>] [<c01452b7>] [<c01452a8>] [<c012ed21>] [<c012f0e0>] 
Aug 31 23:05:00 ronispc kernel:        [<c012f2e2>] [<c013747e>] [<c011dbaf>] 
[<c019deb4>] [<c011f0e8>] [<c012826f>] [<c012d94e>] [<c012dfee>] 
Aug 31 23:05:00 ronispc kernel:        [<c012d57a>] [<c012e2f3>] [<c012e31b>] 
[<c012e233>] [<c0108fe8>] [<c0106ba9>] [<c0107d4d>] [<c0107c14>] 
Aug 31 23:05:00 ronispc kernel: Code: 8b 6d 00 8b 44 24 18 39 43 48 75 58 8b 54 
24 30 39 53 0c 75 
>>EIP; c01348d4 <d_lookup+58/d0>   <=====
Trace; c012ef62 <lookup_dentry+14e/384>
Trace; c011dbaf <do_generic_file_read+67b/688>
Trace; c013c7d7 <ext2_permission+8b/f4>
Trace; c01452b7 <ext2_follow_link+67/88>
Trace; c01452a8 <ext2_follow_link+58/88>
Trace; c012ed21 <permission+29/11c>
Trace; c012f0e0 <lookup_dentry+2cc/384>
Trace; c012f2e2 <open_namei+6a/30c>
Trace; c013747e <load_elf_binary+2ee/ae8>
Trace; c011dbaf <do_generic_file_read+67b/688>
Trace; c019deb4 <cprt+374/3b05>
Trace; c011f0e8 <file_read_actor+0/50>
Trace; c012826f <init_private_file+6f/80>
Trace; c012d94e <read_exec+122/134>
Trace; c012dfee <search_binary_handler+3e/114>
Trace; c012d57a <copy_strings+8a/1b0>
Trace; c012e2f3 <do_execve+22f/2e4>
Trace; c012e31b <do_execve+257/2e4>
Trace; c012e233 <do_execve+16f/2e4>
Trace; c0108fe8 <common_interrupt+18/20>
Trace; c0106ba9 <sys_execve+35/60>
Trace; c0107d4d <error_code+2d/40>
Trace; c0107c14 <system_call+34/40>
Code;  c01348d4 <d_lookup+58/d0>
00000000 <_EIP>:
Code;  c01348d4 <d_lookup+58/d0>   <=====
   0:   8b 6d 00          movl   0x0(%ebp),%ebp   <=====
Code;  c01348d7 <d_lookup+5b/d0>
   3:   8b 44 24 18       movl   0x18(%esp,1),%eax
Code;  c01348db <d_lookup+5f/d0>
   7:   39 43 48          cmpl   %eax,0x48(%ebx)
Code;  c01348de <d_lookup+62/d0>
   a:   75 58             jne    64 <_EIP+0x64> c0134938 <d_lookup+bc/d0>
Code;  c01348e0 <d_lookup+64/d0>
   c:   8b 54 24 30       movl   0x30(%esp,1),%edx
Code;  c01348e4 <d_lookup+68/d0>
  10:   39 53 0c          cmpl   %edx,0xc(%ebx)
Code;  c01348e7 <d_lookup+6b/d0>
  13:   75 00             jne    15 <_EIP+0x15> c01348e9 <d_lookup+6d/d0>
Aug 31 23:05:00 ronispc kernel: Unable to handle kernel paging request at 
virtual address caf5b958
Aug 31 23:05:00 ronispc kernel: current->tss.cr3 = 02e34000, Lr3 = 02e34000
Aug 31 23:05:00 ronispc kernel: *pde = 00000000
Aug 31 23:05:00 ronispc kernel: Oops: 0000
Aug 31 23:05:00 ronispc kernel: CPU:    0
Aug 31 23:05:00 ronispc kernel: EIP:    0010:[<c01348d4>]
Aug 31 23:05:00 ronispc kernel: EFLAGS: 00010206
Aug 31 23:05:00 ronispc kernel: eax: 367c491a   ebx: caf5b940   ecx: c12176ec   
edx: c01d5c58
Aug 31 23:05:00 ronispc kernel: esi: 00000000   edi: c2fd32e0   ebp: caf5b958   
esp: c1b03aec
Aug 31 23:05:00 ronispc kernel: ds: 0018   es: 0018   ss: 0018
Aug 31 23:05:00 ronispc kernel: Process runbench (pid: 24947, process nr: 41, 
stackpage=c1b03000)
Aug 31 23:05:00 ronispc kernel: Stack: c2fd32e0 c12176fd c01d5c58 c12176ec 
367c491a 00000011 00000013 00000000 
Aug 31 23:05:00 ronispc kernel:        c0219780 c012ef62 c2fd32e0 c1b03b44 
00000000 c011dbaf c1217650 c2fd32e0 
Aug 31 23:05:00 ronispc kernel:        00000000 c12176ec 00000013 c09e26a0 
00000000 00000001 c12176ec 00000011 
Aug 31 23:05:00 ronispc kernel: Call Trace: [<c012ef62>] [<c011dbaf>] 
[<c013c7d7>] [<c01452b7>] [<c01452a8>] [<c012ed21>] [<c012f0e0>] 
Aug 31 23:05:00 ronispc kernel:        [<c012f2e2>] [<c013747e>] [<c011dbaf>] 
[<c019deb4>] [<c011f0e8>] [<c012826f>] [<c012d94e>] [<c012dfee>] 
Aug 31 23:05:00 ronispc kernel:        [<c012d57a>] [<c012e2f3>] [<c012e31b>] 
[<c012e233>] [<c0108fe8>] [<c0106ba9>] [<c0107d4d>] [<c0107c14>] 
Aug 31 23:05:00 ronispc kernel: Code: 8b 6d 00 8b 44 24 18 39 43 48 75 58 8b 54 
24 30 39 53 0c 75 
>>EIP; c01348d4 <d_lookup+58/d0>   <=====
Trace; c012ef62 <lookup_dentry+14e/384>
Trace; c011dbaf <do_generic_file_read+67b/688>
Trace; c013c7d7 <ext2_permission+8b/f4>
Trace; c01452b7 <ext2_follow_link+67/88>
Trace; c01452a8 <ext2_follow_link+58/88>
Trace; c012ed21 <permission+29/11c>
Trace; c012f0e0 <lookup_dentry+2cc/384>
Trace; c012f2e2 <open_namei+6a/30c>
Trace; c013747e <load_elf_binary+2ee/ae8>
Trace; c011dbaf <do_generic_file_read+67b/688>
Trace; c019deb4 <cprt+374/3b05>
Trace; c011f0e8 <file_read_actor+0/50>
Trace; c012826f <init_private_file+6f/80>
Trace; c012d94e <read_exec+122/134>
Trace; c012dfee <search_binary_handler+3e/114>
Trace; c012d57a <copy_strings+8a/1b0>
Trace; c012e2f3 <do_execve+22f/2e4>
Trace; c012e31b <do_execve+257/2e4>
Trace; c012e233 <do_execve+16f/2e4>
Trace; c0108fe8 <common_interrupt+18/20>
Trace; c0106ba9 <sys_execve+35/60>
Trace; c0107d4d <error_code+2d/40>
Trace; c0107c14 <system_call+34/40>
Code;  c01348d4 <d_lookup+58/d0>
00000000 <_EIP>:
Code;  c01348d4 <d_lookup+58/d0>   <=====
   0:   8b 6d 00          movl   0x0(%ebp),%ebp   <=====
Code;  c01348d7 <d_lookup+5b/d0>
   3:   8b 44 24 18       movl   0x18(%esp,1),%eax
Code;  c01348db <d_lookup+5f/d0>
   7:   39 43 48          cmpl   %eax,0x48(%ebx)
Code;  c01348de <d_lookup+62/d0>
   a:   75 58             jne    64 <_EIP+0x64> c0134938 <d_lookup+bc/d0>
Code;  c01348e0 <d_lookup+64/d0>
   c:   8b 54 24 30       movl   0x30(%esp,1),%edx
Code;  c01348e4 <d_lookup+68/d0>
  10:   39 53 0c          cmpl   %edx,0xc(%ebx)
Code;  c01348e7 <d_lookup+6b/d0>
  13:   75 00             jne    15 <_EIP+0x15> c01348e9 <d_lookup+6d/d0>
Aug 31 23:05:00 ronispc kernel: Unable to handle kernel paging request at 
virtual address caf5b958
Aug 31 23:05:00 ronispc kernel: current->tss.cr3 = 0187f000, Lr3 = 0187f000
Aug 31 23:05:00 ronispc kernel: *pde = 00000000
Aug 31 23:05:00 ronispc kernel: Oops: 0000
Aug 31 23:05:00 ronispc kernel: CPU:    0
Aug 31 23:05:00 ronispc kernel: EIP:    0010:[<c01348d4>]
Aug 31 23:05:00 ronispc kernel: EFLAGS: 00010206
Aug 31 23:05:00 ronispc kernel: eax: 367c491a   ebx: caf5b940   ecx: c12176ec   
edx: c01d5c58
Aug 31 23:05:00 ronispc kernel: esi: 00000000   edi: c2fd32e0   ebp: caf5b958   
esp: c2a1daec
Aug 31 23:05:00 ronispc kernel: ds: 0018   es: 0018   ss: 0018
Aug 31 23:05:00 ronispc kernel: Process runbench (pid: 24950, process nr: 47, 
stackpage=c2a1d000)
Aug 31 23:05:00 ronispc kernel: Stack: c2fd32e0 c12176fd c01d5c58 c12176ec 
367c491a 00000011 00000013 00000000 
Aug 31 23:05:00 ronispc kernel:        c024ecf0 c012ef62 c2fd32e0 c2a1db44 
00000000 c011dbaf c1217650 c2fd32e0 
Aug 31 23:05:00 ronispc kernel:        00000000 c12176ec 00000013 c09e2720 
00000000 00000001 c12176ec 00000011 
Aug 31 23:05:00 ronispc kernel: Call Trace: [<c012ef62>] [<c011dbaf>] 
[<c013c7d7>] [<c01452b7>] [<c01452a8>] [<c012ed21>] [<c012f0e0>] 
Aug 31 23:05:00 ronispc kernel:        [<c012f2e2>] [<c013747e>] [<c0135eb0>] 
[<c011dbaf>] [<c019deb4>] [<c011f0e8>] [<c012826f>] [<c012d94e>] 
Aug 31 23:05:00 ronispc kernel:        [<c012dfee>] [<c012d57a>] [<c012e2f3>] 
[<c012e31b>] [<c012e233>] [<c0106ba9>] [<c0108fe8>] [<c0107d4d>] 
Aug 31 23:05:00 ronispc kernel:        [<c0107c14>] 
Aug 31 23:05:00 ronispc kernel: Code: 8b 6d 00 8b 44 24 18 39 43 48 75 58 8b 54 
24 30 39 53 0c 75 
>>EIP; c01348d4 <d_lookup+58/d0>   <=====
Trace; c012ef62 <lookup_dentry+14e/384>
Trace; c011dbaf <do_generic_file_read+67b/688>
Trace; c013c7d7 <ext2_permission+8b/f4>
Trace; c01452b7 <ext2_follow_link+67/88>
Trace; c01452a8 <ext2_follow_link+58/88>
Trace; c012ed21 <permission+29/11c>
Trace; c012f0e0 <lookup_dentry+2cc/384>
Trace; c012f2e2 <open_namei+6a/30c>
Trace; c013747e <load_elf_binary+2ee/ae8>
Trace; c0135eb0 <update_atime+64/6c>
Trace; c011dbaf <do_generic_file_read+67b/688>
Trace; c019deb4 <cprt+374/3b05>
Trace; c011f0e8 <file_read_actor+0/50>
Trace; c012826f <init_private_file+6f/80>
Trace; c012d94e <read_exec+122/134>
Trace; c012dfee <search_binary_handler+3e/114>
Trace; c012d57a <copy_strings+8a/1b0>
Trace; c012e2f3 <do_execve+22f/2e4>
Trace; c012e31b <do_execve+257/2e4>
Trace; c012e233 <do_execve+16f/2e4>
Trace; c0106ba9 <sys_execve+35/60>
Trace; c0108fe8 <common_interrupt+18/20>
Trace; c0107d4d <error_code+2d/40>
Trace; c0107c14 <system_call+34/40>
Code;  c01348d4 <d_lookup+58/d0>
00000000 <_EIP>:
Code;  c01348d4 <d_lookup+58/d0>   <=====
   0:   8b 6d 00          movl   0x0(%ebp),%ebp   <=====
Code;  c01348d7 <d_lookup+5b/d0>
   3:   8b 44 24 18       movl   0x18(%esp,1),%eax
Code;  c01348db <d_lookup+5f/d0>
   7:   39 43 48          cmpl   %eax,0x48(%ebx)
Code;  c01348de <d_lookup+62/d0>
   a:   75 58             jne    64 <_EIP+0x64> c0134938 <d_lookup+bc/d0>
Code;  c01348e0 <d_lookup+64/d0>
   c:   8b 54 24 30       movl   0x30(%esp,1),%edx
Code;  c01348e4 <d_lookup+68/d0>
  10:   39 53 0c          cmpl   %edx,0xc(%ebx)
Code;  c01348e7 <d_lookup+6b/d0>
  13:   75 00             jne    15 <_EIP+0x15> c01348e9 <d_lookup+6d/d0>
Aug 31 23:05:00 ronispc kernel: Unable to handle kernel paging request at 
virtual address caf5b958
Aug 31 23:05:00 ronispc kernel: current->tss.cr3 = 0187f000, Lr3 = 0187f000
Aug 31 23:05:00 ronispc kernel: *pde = 00000000
Aug 31 23:05:00 ronispc kernel: Oops: 0000
Aug 31 23:05:00 ronispc kernel: CPU:    0
Aug 31 23:05:00 ronispc kernel: EIP:    0010:[<c01348d4>]
Aug 31 23:05:00 ronispc kernel: EFLAGS: 00010206
Aug 31 23:05:00 ronispc kernel: eax: 367c491a   ebx: caf5b940   ecx: c12176ec   
edx: c01d5c58
Aug 31 23:05:00 ronispc kernel: esi: 00000000   edi: c2fd32e0   ebp: caf5b958   
esp: c2a1daec
Aug 31 23:05:00 ronispc kernel: ds: 0018   es: 0018   ss: 0018
Aug 31 23:05:00 ronispc kernel: Process runbench (pid: 24951, process nr: 47, 
stackpage=c2a1d000)
Aug 31 23:05:00 ronispc kernel: Stack: c2fd32e0 c12176fd c01d5c58 c12176ec 
367c491a 00000011 00000013 00000000 
Aug 31 23:05:00 ronispc kernel:        c0219780 c012ef62 c2fd32e0 c2a1db44 
00000000 c011dbaf c1217650 c2fd32e0 
Aug 31 23:05:00 ronispc kernel:        00000000 c12176ec 00000013 c09e2220 
00000000 00000001 c12176ec 00000011 
Aug 31 23:05:00 ronispc kernel: Call Trace: [<c012ef62>] [<c011dbaf>] 
[<c013c7d7>] [<c01452b7>] [<c01452a8>] [<c012ed21>] [<c012f0e0>] 
Aug 31 23:05:00 ronispc kernel:        [<c012f2e2>] [<c013747e>] [<c0135eb0>] 
[<c011dbaf>] [<c019deb4>] [<c011f0e8>] [<c012826f>] [<c012d94e>] 
Aug 31 23:05:00 ronispc kernel:        [<c012dfee>] [<c012d57a>] [<c012e2f3>] 
[<c012e31b>] [<c012e233>] [<c0106ba9>] [<c0108fe8>] [<c0107d4d>] 
Aug 31 23:05:00 ronispc kernel:        [<c0107c14>] 
Aug 31 23:05:00 ronispc kernel: Code: 8b 6d 00 8b 44 24 18 39 43 48 75 58 8b 54 
24 30 39 53 0c 75 
>>EIP; c01348d4 <d_lookup+58/d0>   <=====
Trace; c012ef62 <lookup_dentry+14e/384>
Trace; c011dbaf <do_generic_file_read+67b/688>
Trace; c013c7d7 <ext2_permission+8b/f4>
Trace; c01452b7 <ext2_follow_link+67/88>
Trace; c01452a8 <ext2_follow_link+58/88>
Trace; c012ed21 <permission+29/11c>
Trace; c012f0e0 <lookup_dentry+2cc/384>
Trace; c012f2e2 <open_namei+6a/30c>
Trace; c013747e <load_elf_binary+2ee/ae8>
Trace; c0135eb0 <update_atime+64/6c>
Trace; c011dbaf <do_generic_file_read+67b/688>
Trace; c019deb4 <cprt+374/3b05>
Trace; c011f0e8 <file_read_actor+0/50>
Trace; c012826f <init_private_file+6f/80>
Trace; c012d94e <read_exec+122/134>
Trace; c012dfee <search_binary_handler+3e/114>
Trace; c012d57a <copy_strings+8a/1b0>
Trace; c012e2f3 <do_execve+22f/2e4>
Trace; c012e31b <do_execve+257/2e4>
Trace; c012e233 <do_execve+16f/2e4>
Trace; c0106ba9 <sys_execve+35/60>
Trace; c0108fe8 <common_interrupt+18/20>
Trace; c0107d4d <error_code+2d/40>
Trace; c0107c14 <system_call+34/40>
Code;  c01348d4 <d_lookup+58/d0>
00000000 <_EIP>:
Code;  c01348d4 <d_lookup+58/d0>   <=====
   0:   8b 6d 00          movl   0x0(%ebp),%ebp   <=====
Code;  c01348d7 <d_lookup+5b/d0>
   3:   8b 44 24 18       movl   0x18(%esp,1),%eax
Code;  c01348db <d_lookup+5f/d0>
   7:   39 43 48          cmpl   %eax,0x48(%ebx)
Code;  c01348de <d_lookup+62/d0>
   a:   75 58             jne    64 <_EIP+0x64> c0134938 <d_lookup+bc/d0>
Code;  c01348e0 <d_lookup+64/d0>
   c:   8b 54 24 30       movl   0x30(%esp,1),%edx
Code;  c01348e4 <d_lookup+68/d0>
  10:   39 53 0c          cmpl   %edx,0xc(%ebx)
Code;  c01348e7 <d_lookup+6b/d0>
  13:   75 00             jne    15 <_EIP+0x15> c01348e9 <d_lookup+6d/d0>
Aug 31 23:05:00 ronispc kernel: Unable to handle kernel paging request at 
virtual address caf5b958
Aug 31 23:05:00 ronispc kernel: current->tss.cr3 = 02e34000, Lr3 = 02e34000
Aug 31 23:05:00 ronispc kernel: *pde = 00000000
Aug 31 23:05:00 ronispc kernel: Oops: 0000
Aug 31 23:05:00 ronispc kernel: CPU:    0
Aug 31 23:05:00 ronispc kernel: EIP:    0010:[<c01348d4>]
Aug 31 23:05:00 ronispc kernel: EFLAGS: 00010206
Aug 31 23:05:00 ronispc kernel: eax: 367c491a   ebx: caf5b940   ecx: c12176ec   
edx: c01d5c58
Aug 31 23:05:00 ronispc kernel: esi: 00000000   edi: c2fd32e0   ebp: caf5b958   
esp: c1b03aec
Aug 31 23:05:00 ronispc kernel: ds: 0018   es: 0018   ss: 0018
Aug 31 23:05:00 ronispc kernel: Process runbench (pid: 24954, process nr: 41, 
stackpage=c1b03000)
Aug 31 23:05:00 ronispc kernel: Stack: c2fd32e0 c12176fd c01d5c58 c12176ec 
367c491a 00000011 00000013 00000000 
Aug 31 23:05:00 ronispc kernel:        c024ecf0 c012ef62 c2fd32e0 c1b03b44 
00000000 c011dbaf c1217650 c2fd32e0 
Aug 31 23:05:00 ronispc kernel:        00000000 c12176ec 00000013 c09e20e0 
00000000 00000001 c12176ec 00000011 
Aug 31 23:05:00 ronispc kernel: Call Trace: [<c012ef62>] [<c011dbaf>] 
[<c013c7d7>] [<c01452b7>] [<c01452a8>] [<c012ed21>] [<c012f0e0>] 
Aug 31 23:05:00 ronispc kernel:        [<c012f2e2>] [<c013747e>] [<c011dbaf>] 
[<c019deb4>] [<c011f0e8>] [<c012826f>] [<c012d94e>] [<c012dfee>] 
Aug 31 23:05:00 ronispc kernel:        [<c012d57a>] [<c012e2f3>] [<c012e31b>] 
[<c012e233>] [<c0106ba9>] [<c0107d4d>] [<c0107c14>] 
Aug 31 23:05:00 ronispc kernel: Code: 8b 6d 00 8b 44 24 18 39 43 48 75 58 8b 54 
24 30 39 53 0c 75 
>>EIP; c01348d4 <d_lookup+58/d0>   <=====
Trace; c012ef62 <lookup_dentry+14e/384>
Trace; c011dbaf <do_generic_file_read+67b/688>
Trace; c013c7d7 <ext2_permission+8b/f4>
Trace; c01452b7 <ext2_follow_link+67/88>
Trace; c01452a8 <ext2_follow_link+58/88>
Trace; c012ed21 <permission+29/11c>
Trace; c012f0e0 <lookup_dentry+2cc/384>
Trace; c012f2e2 <open_namei+6a/30c>
Trace; c013747e <load_elf_binary+2ee/ae8>
Trace; c011dbaf <do_generic_file_read+67b/688>
Trace; c019deb4 <cprt+374/3b05>
Trace; c011f0e8 <file_read_actor+0/50>
Trace; c012826f <init_private_file+6f/80>
Trace; c012d94e <read_exec+122/134>
Trace; c012dfee <search_binary_handler+3e/114>
Trace; c012d57a <copy_strings+8a/1b0>
Trace; c012e2f3 <do_execve+22f/2e4>
Trace; c012e31b <do_execve+257/2e4>
Trace; c012e233 <do_execve+16f/2e4>
Trace; c0106ba9 <sys_execve+35/60>
Trace; c0107d4d <error_code+2d/40>
Trace; c0107c14 <system_call+34/40>
Code;  c01348d4 <d_lookup+58/d0>
00000000 <_EIP>:
Code;  c01348d4 <d_lookup+58/d0>   <=====
   0:   8b 6d 00          movl   0x0(%ebp),%ebp   <=====
Code;  c01348d7 <d_lookup+5b/d0>
   3:   8b 44 24 18       movl   0x18(%esp,1),%eax
Code;  c01348db <d_lookup+5f/d0>
   7:   39 43 48          cmpl   %eax,0x48(%ebx)
Code;  c01348de <d_lookup+62/d0>
   a:   75 58             jne    64 <_EIP+0x64> c0134938 <d_lookup+bc/d0>
Code;  c01348e0 <d_lookup+64/d0>
   c:   8b 54 24 30       movl   0x30(%esp,1),%edx
Code;  c01348e4 <d_lookup+68/d0>
  10:   39 53 0c          cmpl   %edx,0xc(%ebx)
Code;  c01348e7 <d_lookup+6b/d0>
  13:   75 00             jne    15 <_EIP+0x15> c01348e9 <d_lookup+6d/d0>
Aug 31 23:05:00 ronispc kernel: Unable to handle kernel paging request at 
virtual address caf5b958
Aug 31 23:05:00 ronispc kernel: current->tss.cr3 = 02e34000, Lr3 = 02e34000
Aug 31 23:05:00 ronispc kernel: *pde = 00000000
Aug 31 23:05:00 ronispc kernel: Oops: 0000
Aug 31 23:05:00 ronispc kernel: CPU:    0
Aug 31 23:05:00 ronispc kernel: EIP:    0010:[<c01348d4>]
Aug 31 23:05:00 ronispc kernel: EFLAGS: 00010206
Aug 31 23:05:00 ronispc kernel: eax: 367c491a   ebx: caf5b940   ecx: c12176ec   
edx: c01d5c58
Aug 31 23:05:00 ronispc kernel: esi: 00000000   edi: c2fd32e0   ebp: caf5b958   
esp: c1b03aec
Aug 31 23:05:00 ronispc kernel: ds: 0018   es: 0018   ss: 0018
Aug 31 23:05:00 ronispc kernel: Process runbench (pid: 24955, process nr: 41, 
stackpage=c1b03000)
Aug 31 23:05:00 ronispc kernel: Stack: c2fd32e0 c12176fd c01d5c58 c12176ec 
367c491a 00000011 00000013 00000000 
Aug 31 23:05:00 ronispc kernel:        c0219780 c012ef62 c2fd32e0 c1b03b44 
00000000 c011dbaf c1217650 c2fd32e0 
Aug 31 23:05:00 ronispc kernel:        00000000 c12176ec 00000013 c09e2060 
00000000 00000001 c12176ec 00000011 
Aug 31 23:05:00 ronispc kernel: Call Trace: [<c012ef62>] [<c011dbaf>] 
[<c013c7d7>] [<c01452b7>] [<c01452a8>] [<c012ed21>] [<c012f0e0>] 
Aug 31 23:05:00 ronispc kernel:        [<c012f2e2>] [<c013747e>] [<c011dbaf>] 
[<c019deb4>] [<c011f0e8>] [<c012826f>] [<c012d94e>] [<c012dfee>] 
Aug 31 23:05:00 ronispc kernel:        [<c012d57a>] [<c012e2f3>] [<c012e31b>] 
[<c012e233>] [<c0106ba9>] [<c0107d4d>] [<c0107c14>] 
Aug 31 23:05:00 ronispc kernel: Code: 8b 6d 00 8b 44 24 18 39 43 48 75 58 8b 54 
24 30 39 53 0c 75 
>>EIP; c01348d4 <d_lookup+58/d0>   <=====
Trace; c012ef62 <lookup_dentry+14e/384>
Trace; c011dbaf <do_generic_file_read+67b/688>
Trace; c013c7d7 <ext2_permission+8b/f4>
Trace; c01452b7 <ext2_follow_link+67/88>
Trace; c01452a8 <ext2_follow_link+58/88>
Trace; c012ed21 <permission+29/11c>
Trace; c012f0e0 <lookup_dentry+2cc/384>
Trace; c012f2e2 <open_namei+6a/30c>
Trace; c013747e <load_elf_binary+2ee/ae8>
Trace; c011dbaf <do_generic_file_read+67b/688>
Trace; c019deb4 <cprt+374/3b05>
Trace; c011f0e8 <file_read_actor+0/50>
Trace; c012826f <init_private_file+6f/80>
Trace; c012d94e <read_exec+122/134>
Trace; c012dfee <search_binary_handler+3e/114>
Trace; c012d57a <copy_strings+8a/1b0>
Trace; c012e2f3 <do_execve+22f/2e4>
Trace; c012e31b <do_execve+257/2e4>
Trace; c012e233 <do_execve+16f/2e4>
Trace; c0106ba9 <sys_execve+35/60>
Trace; c0107d4d <error_code+2d/40>
Trace; c0107c14 <system_call+34/40>
Code;  c01348d4 <d_lookup+58/d0>
00000000 <_EIP>:
Code;  c01348d4 <d_lookup+58/d0>   <=====
   0:   8b 6d 00          movl   0x0(%ebp),%ebp   <=====
Code;  c01348d7 <d_lookup+5b/d0>
   3:   8b 44 24 18       movl   0x18(%esp,1),%eax
Code;  c01348db <d_lookup+5f/d0>
   7:   39 43 48          cmpl   %eax,0x48(%ebx)
Code;  c01348de <d_lookup+62/d0>
   a:   75 58             jne    64 <_EIP+0x64> c0134938 <d_lookup+bc/d0>
Code;  c01348e0 <d_lookup+64/d0>
   c:   8b 54 24 30       movl   0x30(%esp,1),%edx
Code;  c01348e4 <d_lookup+68/d0>
  10:   39 53 0c          cmpl   %edx,0xc(%ebx)
Code;  c01348e7 <d_lookup+6b/d0>
  13:   75 00             jne    15 <_EIP+0x15> c01348e9 <d_lookup+6d/d0>
Aug 31 23:05:00 ronispc kernel: Unable to handle kernel paging request at 
virtual address caf5b958
Aug 31 23:05:00 ronispc kernel: current->tss.cr3 = 0187f000, Lr3 = 0187f000
Aug 31 23:05:00 ronispc kernel: *pde = 00000000
Aug 31 23:05:00 ronispc kernel: Oops: 0000
Aug 31 23:05:00 ronispc kernel: CPU:    0
Aug 31 23:05:00 ronispc kernel: EIP:    0010:[<c01348d4>]
Aug 31 23:05:00 ronispc kernel: EFLAGS: 00010206
Aug 31 23:05:00 ronispc kernel: eax: 367c491a   ebx: caf5b940   ecx: c12176ec   
edx: c01d5c58
Aug 31 23:05:00 ronispc kernel: esi: 00000000   edi: c2fd32e0   ebp: caf5b958   
esp: c2a1daec
Aug 31 23:05:00 ronispc kernel: ds: 0018   es: 0018   ss: 0018
Aug 31 23:05:00 ronispc kernel: Process runbench (pid: 24958, process nr: 47, 
stackpage=c2a1d000)
Aug 31 23:05:00 ronispc kernel: Stack: c2fd32e0 c12176fd c01d5c58 c12176ec 
367c491a 00000011 00000013 00000000 
Aug 31 23:05:00 ronispc kernel:        c024ecf0 c012ef62 c2fd32e0 c2a1db44 
00000000 c011dbaf c1217650 c2fd32e0 
Aug 31 23:05:00 ronispc kernel:        00000000 c12176ec 00000013 c09e2020 
00000000 00000001 c12176ec 00000011 
Aug 31 23:05:00 ronispc kernel: Call Trace: [<c012ef62>] [<c011dbaf>] 
[<c013c7d7>] [<c01452b7>] [<c01452a8>] [<c012ed21>] [<c012f0e0>] 
Aug 31 23:05:00 ronispc kernel:        [<c012f2e2>] [<c013747e>] [<c011dbaf>] 
[<c019deb4>] [<c011f0e8>] [<c012826f>] [<c012d94e>] [<c012dfee>] 
Aug 31 23:05:00 ronispc kernel:        [<c012d57a>] [<c012e2f3>] [<c012e31b>] 
[<c012e233>] [<c0106ba9>] [<c0108fe8>] [<c0107d4d>] [<c0107c14>] 
Aug 31 23:05:00 ronispc kernel: Code: 8b 6d 00 8b 44 24 18 39 43 48 75 58 8b 54 
24 30 39 53 0c 75 
>>EIP; c01348d4 <d_lookup+58/d0>   <=====
Trace; c012ef62 <lookup_dentry+14e/384>
Trace; c011dbaf <do_generic_file_read+67b/688>
Trace; c013c7d7 <ext2_permission+8b/f4>
Trace; c01452b7 <ext2_follow_link+67/88>
Trace; c01452a8 <ext2_follow_link+58/88>
Trace; c012ed21 <permission+29/11c>
Trace; c012f0e0 <lookup_dentry+2cc/384>
Trace; c012f2e2 <open_namei+6a/30c>
Trace; c013747e <load_elf_binary+2ee/ae8>
Trace; c011dbaf <do_generic_file_read+67b/688>
Trace; c019deb4 <cprt+374/3b05>
Trace; c011f0e8 <file_read_actor+0/50>
Trace; c012826f <init_private_file+6f/80>
Trace; c012d94e <read_exec+122/134>
Trace; c012dfee <search_binary_handler+3e/114>
Trace; c012d57a <copy_strings+8a/1b0>
Trace; c012e2f3 <do_execve+22f/2e4>
Trace; c012e31b <do_execve+257/2e4>
Trace; c012e233 <do_execve+16f/2e4>
Trace; c0106ba9 <sys_execve+35/60>
Trace; c0108fe8 <common_interrupt+18/20>
Trace; c0107d4d <error_code+2d/40>
Trace; c0107c14 <system_call+34/40>
Code;  c01348d4 <d_lookup+58/d0>
00000000 <_EIP>:
Code;  c01348d4 <d_lookup+58/d0>   <=====
   0:   8b 6d 00          movl   0x0(%ebp),%ebp   <=====
Code;  c01348d7 <d_lookup+5b/d0>
   3:   8b 44 24 18       movl   0x18(%esp,1),%eax
Code;  c01348db <d_lookup+5f/d0>
   7:   39 43 48          cmpl   %eax,0x48(%ebx)
Code;  c01348de <d_lookup+62/d0>
   a:   75 58             jne    64 <_EIP+0x64> c0134938 <d_lookup+bc/d0>
Code;  c01348e0 <d_lookup+64/d0>
   c:   8b 54 24 30       movl   0x30(%esp,1),%edx
Code;  c01348e4 <d_lookup+68/d0>
  10:   39 53 0c          cmpl   %edx,0xc(%ebx)
Code;  c01348e7 <d_lookup+6b/d0>
  13:   75 00             jne    15 <_EIP+0x15> c01348e9 <d_lookup+6d/d0>
Aug 31 23:05:00 ronispc kernel: Unable to handle kernel paging request at 
virtual address caf5b958
Aug 31 23:05:00 ronispc kernel: current->tss.cr3 = 0187f000, Lr3 = 0187f000
Aug 31 23:05:00 ronispc kernel: *pde = 00000000
Aug 31 23:05:00 ronispc kernel: Oops: 0000
Aug 31 23:05:00 ronispc kernel: CPU:    0
Aug 31 23:05:00 ronispc kernel: EIP:    0010:[<c01348d4>]
Aug 31 23:05:00 ronispc kernel: EFLAGS: 00010206
Aug 31 23:05:00 ronispc kernel: eax: 367c491a   ebx: caf5b940   ecx: c12176ec   
edx: c01d5c58
Aug 31 23:05:00 ronispc kernel: esi: 00000000   edi: c2fd32e0   ebp: caf5b958   
esp: c2a1daec
Aug 31 23:05:00 ronispc kernel: ds: 0018   es: 0018   ss: 0018
Aug 31 23:05:00 ronispc kernel: Process runbench (pid: 24959, process nr: 47, 
stackpage=c2a1d000)
Aug 31 23:05:00 ronispc kernel: Stack: c2fd32e0 c12176fd c01d5c58 c12176ec 
367c491a 00000011 00000013 00000000 
Aug 31 23:05:00 ronispc kernel:        c0219780 c012ef62 c2fd32e0 c2a1db44 
00000000 c011dbaf c1217650 c2fd32e0 
Aug 31 23:05:00 ronispc kernel:        00000000 c12176ec 00000013 c09e20a0 
00000000 00000001 c12176ec 00000011 
Aug 31 23:05:00 ronispc kernel: Call Trace: [<c012ef62>] [<c011dbaf>] 
[<c013c7d7>] [<c01452b7>] [<c01452a8>] [<c012ed21>] [<c012f0e0>] 
Aug 31 23:05:00 ronispc kernel:        [<c012f2e2>] [<c013747e>] [<c011dbaf>] 
[<c019deb4>] [<c011f0e8>] [<c012826f>] [<c012d94e>] [<c012dfee>] 
Aug 31 23:05:00 ronispc kernel:        [<c012d57a>] [<c012e2f3>] [<c012e31b>] 
[<c012e233>] [<c0106ba9>] [<c0108fe8>] [<c0107d4d>] [<c0107c14>] 
Aug 31 23:05:00 ronispc kernel: Code: 8b 6d 00 8b 44 24 18 39 43 48 75 58 8b 54 
24 30 39 53 0c 75 
>>EIP; c01348d4 <d_lookup+58/d0>   <=====
Trace; c012ef62 <lookup_dentry+14e/384>
Trace; c011dbaf <do_generic_file_read+67b/688>
Trace; c013c7d7 <ext2_permission+8b/f4>
Trace; c01452b7 <ext2_follow_link+67/88>
Trace; c01452a8 <ext2_follow_link+58/88>
Trace; c012ed21 <permission+29/11c>
Trace; c012f0e0 <lookup_dentry+2cc/384>
Trace; c012f2e2 <open_namei+6a/30c>
Trace; c013747e <load_elf_binary+2ee/ae8>
Trace; c011dbaf <do_generic_file_read+67b/688>
Trace; c019deb4 <cprt+374/3b05>
Trace; c011f0e8 <file_read_actor+0/50>
Trace; c012826f <init_private_file+6f/80>
Trace; c012d94e <read_exec+122/134>
Trace; c012dfee <search_binary_handler+3e/114>
Trace; c012d57a <copy_strings+8a/1b0>
Trace; c012e2f3 <do_execve+22f/2e4>
Trace; c012e31b <do_execve+257/2e4>
Trace; c012e233 <do_execve+16f/2e4>
Trace; c0106ba9 <sys_execve+35/60>
Trace; c0108fe8 <common_interrupt+18/20>
Trace; c0107d4d <error_code+2d/40>
Trace; c0107c14 <system_call+34/40>
Code;  c01348d4 <d_lookup+58/d0>
00000000 <_EIP>:
Code;  c01348d4 <d_lookup+58/d0>   <=====
   0:   8b 6d 00          movl   0x0(%ebp),%ebp   <=====
Code;  c01348d7 <d_lookup+5b/d0>
   3:   8b 44 24 18       movl   0x18(%esp,1),%eax
Code;  c01348db <d_lookup+5f/d0>
   7:   39 43 48          cmpl   %eax,0x48(%ebx)
Code;  c01348de <d_lookup+62/d0>
   a:   75 58             jne    64 <_EIP+0x64> c0134938 <d_lookup+bc/d0>
Code;  c01348e0 <d_lookup+64/d0>
   c:   8b 54 24 30       movl   0x30(%esp,1),%edx
Code;  c01348e4 <d_lookup+68/d0>
  10:   39 53 0c          cmpl   %edx,0xc(%ebx)
Code;  c01348e7 <d_lookup+6b/d0>
  13:   75 00             jne    15 <_EIP+0x15> c01348e9 <d_lookup+6d/d0>
Aug 31 23:05:00 ronispc kernel: Unable to handle kernel paging request at 
virtual address caf5b958
Aug 31 23:05:00 ronispc kernel: current->tss.cr3 = 02e34000, Lr3 = 02e34000
Aug 31 23:05:00 ronispc kernel: *pde = 00000000
Aug 31 23:05:00 ronispc kernel: Oops: 0000
Aug 31 23:05:00 ronispc kernel: CPU:    0
Aug 31 23:05:00 ronispc kernel: EIP:    0010:[<c01348d4>]
Aug 31 23:05:00 ronispc kernel: EFLAGS: 00010206
Aug 31 23:05:00 ronispc kernel: eax: 367c491a   ebx: caf5b940   ecx: c12176ec   
edx: c01d5c58
Aug 31 23:05:00 ronispc kernel: esi: 00000000   edi: c2fd32e0   ebp: caf5b958   
esp: c1b03aec
Aug 31 23:05:00 ronispc kernel: ds: 0018   es: 0018   ss: 0018
Aug 31 23:05:00 ronispc kernel: Process runbench (pid: 24962, process nr: 41, 
stackpage=c1b03000)
Aug 31 23:05:00 ronispc kernel: Stack: c2fd32e0 c12176fd c01d5c58 c12176ec 
367c491a 00000011 00000013 00000000 
Aug 31 23:05:00 ronispc kernel:        c024ecf0 c012ef62 c2fd32e0 c1b03b44 
00000000 c011dbaf c1217650 c2fd32e0 
Aug 31 23:05:00 ronispc kernel:        00000000 c12176ec 00000013 c09e2160 
00000000 00000001 c12176ec 00000011 
Aug 31 23:05:00 ronispc kernel: Call Trace: [<c012ef62>] [<c011dbaf>] 
[<c013c7d7>] [<c01452b7>] [<c01452a8>] [<c012ed21>] [<c012f0e0>] 
Aug 31 23:05:00 ronispc kernel:        [<c012f2e2>] [<c013747e>] [<c011dbaf>] 
[<c019deb4>] [<c011f0e8>] [<c012826f>] [<c012d94e>] [<c012dfee>] 
Aug 31 23:05:00 ronispc kernel:        [<c012d57a>] [<c012e2f3>] [<c012e31b>] 
[<c012e233>] [<c0106ba9>] [<c0107d4d>] [<c0107c14>] 
Aug 31 23:05:00 ronispc kernel: Code: 8b 6d 00 8b 44 24 18 39 43 48 75 58 8b 54 
24 30 39 53 0c 75 
>>EIP; c01348d4 <d_lookup+58/d0>   <=====
Trace; c012ef62 <lookup_dentry+14e/384>
Trace; c011dbaf <do_generic_file_read+67b/688>
Trace; c013c7d7 <ext2_permission+8b/f4>
Trace; c01452b7 <ext2_follow_link+67/88>
Trace; c01452a8 <ext2_follow_link+58/88>
Trace; c012ed21 <permission+29/11c>
Trace; c012f0e0 <lookup_dentry+2cc/384>
Trace; c012f2e2 <open_namei+6a/30c>
Trace; c013747e <load_elf_binary+2ee/ae8>
Trace; c011dbaf <do_generic_file_read+67b/688>
Trace; c019deb4 <cprt+374/3b05>
Trace; c011f0e8 <file_read_actor+0/50>
Trace; c012826f <init_private_file+6f/80>
Trace; c012d94e <read_exec+122/134>
Trace; c012dfee <search_binary_handler+3e/114>
Trace; c012d57a <copy_strings+8a/1b0>
Trace; c012e2f3 <do_execve+22f/2e4>
Trace; c012e31b <do_execve+257/2e4>
Trace; c012e233 <do_execve+16f/2e4>
Trace; c0106ba9 <sys_execve+35/60>
Trace; c0107d4d <error_code+2d/40>
Trace; c0107c14 <system_call+34/40>
Code;  c01348d4 <d_lookup+58/d0>
00000000 <_EIP>:
Code;  c01348d4 <d_lookup+58/d0>   <=====
   0:   8b 6d 00          movl   0x0(%ebp),%ebp   <=====
Code;  c01348d7 <d_lookup+5b/d0>
   3:   8b 44 24 18       movl   0x18(%esp,1),%eax
Code;  c01348db <d_lookup+5f/d0>
   7:   39 43 48          cmpl   %eax,0x48(%ebx)
Code;  c01348de <d_lookup+62/d0>
   a:   75 58             jne    64 <_EIP+0x64> c0134938 <d_lookup+bc/d0>
Code;  c01348e0 <d_lookup+64/d0>
   c:   8b 54 24 30       movl   0x30(%esp,1),%edx
Code;  c01348e4 <d_lookup+68/d0>
  10:   39 53 0c          cmpl   %edx,0xc(%ebx)
Code;  c01348e7 <d_lookup+6b/d0>
  13:   75 00             jne    15 <_EIP+0x15> c01348e9 <d_lookup+6d/d0>
Aug 31 23:05:00 ronispc kernel: Unable to handle kernel paging request at 
virtual address caf5b958
Aug 31 23:05:00 ronispc kernel: current->tss.cr3 = 02e34000, Lr3 = 02e34000
Aug 31 23:05:00 ronispc kernel: *pde = 00000000
Aug 31 23:05:00 ronispc kernel: Oops: 0000
Aug 31 23:05:00 ronispc kernel: CPU:    0
Aug 31 23:05:00 ronispc kernel: EIP:    0010:[<c01348d4>]
Aug 31 23:05:00 ronispc kernel: EFLAGS: 00010206
Aug 31 23:05:00 ronispc kernel: eax: 367c491a   ebx: caf5b940   ecx: c12176ec   
edx: c01d5c58
Aug 31 23:05:00 ronispc kernel: esi: 00000000   edi: c2fd32e0   ebp: caf5b958   
esp: c1b03aec
Aug 31 23:05:00 ronispc kernel: ds: 0018   es: 0018   ss: 0018
Aug 31 23:05:00 ronispc kernel: Process runbench (pid: 24963, process nr: 41, 
stackpage=c1b03000)
Aug 31 23:05:00 ronispc kernel: Stack: c2fd32e0 c12176fd c01d5c58 c12176ec 
367c491a 00000011 00000013 00000000 
Aug 31 23:05:00 ronispc kernel:        c0219780 c012ef62 c2fd32e0 c1b03b44 
00000000 c011dbaf c1217650 c2fd32e0 
Aug 31 23:05:00 ronispc kernel:        00000000 c12176ec 00000013 c09e2120 
00000000 00000001 c12176ec 00000011 
Aug 31 23:05:00 ronispc kernel: Call Trace: [<c012ef62>] [<c011dbaf>] 
[<c013c7d7>] [<c01452b7>] [<c01452a8>] [<c012ed21>] [<c012f0e0>] 
Aug 31 23:05:00 ronispc kernel:        [<c012f2e2>] [<c013747e>] [<c011dbaf>] 
[<c019deb4>] [<c011f0e8>] [<c012826f>] [<c012d94e>] [<c012dfee>] 
Aug 31 23:05:00 ronispc kernel:        [<c012d57a>] [<c012e2f3>] [<c012e31b>] 
[<c012e233>] [<c0106ba9>] [<c0107d4d>] [<c0107c14>] 
Aug 31 23:05:00 ronispc kernel: Code: 8b 6d 00 8b 44 24 18 39 43 48 75 58 8b 54 
24 30 39 53 0c 75 
>>EIP; c01348d4 <d_lookup+58/d0>   <=====
Trace; c012ef62 <lookup_dentry+14e/384>
Trace; c011dbaf <do_generic_file_read+67b/688>
Trace; c013c7d7 <ext2_permission+8b/f4>
Trace; c01452b7 <ext2_follow_link+67/88>
Trace; c01452a8 <ext2_follow_link+58/88>
Trace; c012ed21 <permission+29/11c>
Trace; c012f0e0 <lookup_dentry+2cc/384>
Trace; c012f2e2 <open_namei+6a/30c>
Trace; c013747e <load_elf_binary+2ee/ae8>
Trace; c011dbaf <do_generic_file_read+67b/688>
Trace; c019deb4 <cprt+374/3b05>
Trace; c011f0e8 <file_read_actor+0/50>
Trace; c012826f <init_private_file+6f/80>
Trace; c012d94e <read_exec+122/134>
Trace; c012dfee <search_binary_handler+3e/114>
Trace; c012d57a <copy_strings+8a/1b0>
Trace; c012e2f3 <do_execve+22f/2e4>
Trace; c012e31b <do_execve+257/2e4>
Trace; c012e233 <do_execve+16f/2e4>
Trace; c0106ba9 <sys_execve+35/60>
Trace; c0107d4d <error_code+2d/40>
Trace; c0107c14 <system_call+34/40>
Code;  c01348d4 <d_lookup+58/d0>
00000000 <_EIP>:
Code;  c01348d4 <d_lookup+58/d0>   <=====
   0:   8b 6d 00          movl   0x0(%ebp),%ebp   <=====
Code;  c01348d7 <d_lookup+5b/d0>
   3:   8b 44 24 18       movl   0x18(%esp,1),%eax
Code;  c01348db <d_lookup+5f/d0>
   7:   39 43 48          cmpl   %eax,0x48(%ebx)
Code;  c01348de <d_lookup+62/d0>
   a:   75 58             jne    64 <_EIP+0x64> c0134938 <d_lookup+bc/d0>
Code;  c01348e0 <d_lookup+64/d0>
   c:   8b 54 24 30       movl   0x30(%esp,1),%edx
Code;  c01348e4 <d_lookup+68/d0>
  10:   39 53 0c          cmpl   %edx,0xc(%ebx)
Code;  c01348e7 <d_lookup+6b/d0>
  13:   75 00             jne    15 <_EIP+0x15> c01348e9 <d_lookup+6d/d0>
Aug 31 23:05:00 ronispc kernel: Unable to handle kernel paging request at 
virtual address caf5b958
Aug 31 23:05:00 ronispc kernel: current->tss.cr3 = 0187f000, Lr3 = 0187f000
Aug 31 23:05:00 ronispc kernel: *pde = 00000000
Aug 31 23:05:00 ronispc kernel: Oops: 0000
Aug 31 23:05:00 ronispc kernel: CPU:    0
Aug 31 23:05:00 ronispc kernel: EIP:    0010:[<c01348d4>]
Aug 31 23:05:00 ronispc kernel: EFLAGS: 00010206
Aug 31 23:05:00 ronispc kernel: eax: 367c491a   ebx: caf5b940   ecx: c12176ec   
edx: c01d5c58
Aug 31 23:05:00 ronispc kernel: esi: 00000000   edi: c2fd32e0   ebp: caf5b958   
esp: c1b03aec
Aug 31 23:05:00 ronispc kernel: ds: 0018   es: 0018   ss: 0018
Aug 31 23:05:00 ronispc kernel: Process runbench (pid: 24966, process nr: 41, 
stackpage=c1b03000)
Aug 31 23:05:00 ronispc kernel: Stack: c2fd32e0 c12176fd c01d5c58 c12176ec 
367c491a 00000011 00000013 00000000 
Aug 31 23:05:00 ronispc kernel:        c024ecf0 c012ef62 c2fd32e0 c1b03b44 
00000000 c011dbaf c1217650 c2fd32e0 
Aug 31 23:05:00 ronispc kernel:        00000000 c12176ec 00000013 c09e22a0 
00000000 00000001 c12176ec 00000011 
Aug 31 23:05:00 ronispc kernel: Call Trace: [<c012ef62>] [<c011dbaf>] 
[<c013c7d7>] [<c01452b7>] [<c01452a8>] [<c012ed21>] [<c012f0e0>] 
Aug 31 23:05:00 ronispc kernel:        [<c012f2e2>] [<c013747e>] [<c011dbaf>] 
[<c019deb4>] [<c011f0e8>] [<c012826f>] [<c012d94e>] [<c012dfee>] 
Aug 31 23:05:00 ronispc kernel:        [<c012d57a>] [<c012e2f3>] [<c012e31b>] 
[<c012e233>] [<c0106ba9>] [<c0107d4d>] [<c0107c14>] 
Aug 31 23:05:00 ronispc kernel: Code: 8b 6d 00 8b 44 24 18 39 43 48 75 58 8b 54 
24 30 39 53 0c 75 
>>EIP; c01348d4 <d_lookup+58/d0>   <=====
Trace; c012ef62 <lookup_dentry+14e/384>
Trace; c011dbaf <do_generic_file_read+67b/688>
Trace; c013c7d7 <ext2_permission+8b/f4>
Trace; c01452b7 <ext2_follow_link+67/88>
Trace; c01452a8 <ext2_follow_link+58/88>
Trace; c012ed21 <permission+29/11c>
Trace; c012f0e0 <lookup_dentry+2cc/384>
Trace; c012f2e2 <open_namei+6a/30c>
Trace; c013747e <load_elf_binary+2ee/ae8>
Trace; c011dbaf <do_generic_file_read+67b/688>
Trace; c019deb4 <cprt+374/3b05>
Trace; c011f0e8 <file_read_actor+0/50>
Trace; c012826f <init_private_file+6f/80>
Trace; c012d94e <read_exec+122/134>
Trace; c012dfee <search_binary_handler+3e/114>
Trace; c012d57a <copy_strings+8a/1b0>
Trace; c012e2f3 <do_execve+22f/2e4>
Trace; c012e31b <do_execve+257/2e4>
Trace; c012e233 <do_execve+16f/2e4>
Trace; c0106ba9 <sys_execve+35/60>
Trace; c0107d4d <error_code+2d/40>
Trace; c0107c14 <system_call+34/40>
Code;  c01348d4 <d_lookup+58/d0>
00000000 <_EIP>:
Code;  c01348d4 <d_lookup+58/d0>   <=====
   0:   8b 6d 00          movl   0x0(%ebp),%ebp   <=====
Code;  c01348d7 <d_lookup+5b/d0>
   3:   8b 44 24 18       movl   0x18(%esp,1),%eax
Code;  c01348db <d_lookup+5f/d0>
   7:   39 43 48          cmpl   %eax,0x48(%ebx)
Code;  c01348de <d_lookup+62/d0>
   a:   75 58             jne    64 <_EIP+0x64> c0134938 <d_lookup+bc/d0>
Code;  c01348e0 <d_lookup+64/d0>
   c:   8b 54 24 30       movl   0x30(%esp,1),%edx
Code;  c01348e4 <d_lookup+68/d0>
  10:   39 53 0c          cmpl   %edx,0xc(%ebx)
Code;  c01348e7 <d_lookup+6b/d0>
  13:   75 00             jne    15 <_EIP+0x15> c01348e9 <d_lookup+6d/d0>
Aug 31 23:05:00 ronispc kernel: Unable to handle kernel paging request at 
virtual address caf5b958
Aug 31 23:05:00 ronispc kernel: current->tss.cr3 = 0187f000, Lr3 = 0187f000
Aug 31 23:05:00 ronispc kernel: *pde = 00000000
Aug 31 23:05:00 ronispc kernel: Oops: 0000
Aug 31 23:05:00 ronispc kernel: CPU:    0
Aug 31 23:05:00 ronispc kernel: EIP:    0010:[<c01348d4>]
Aug 31 23:05:00 ronispc kernel: EFLAGS: 00010206
Aug 31 23:05:00 ronispc kernel: eax: 367c491a   ebx: caf5b940   ecx: c12176ec   
edx: c01d5c58
Aug 31 23:05:00 ronispc kernel: esi: 00000000   edi: c2fd32e0   ebp: caf5b958   
esp: c1b03aec
Aug 31 23:05:00 ronispc kernel: ds: 0018   es: 0018   ss: 0018
Aug 31 23:05:00 ronispc kernel: Process runbench (pid: 24967, process nr: 41, 
stackpage=c1b03000)
Aug 31 23:05:00 ronispc kernel: Stack: c2fd32e0 c12176fd c01d5c58 c12176ec 
367c491a 00000011 00000013 00000000 
Aug 31 23:05:00 ronispc kernel:        c0219780 c012ef62 c2fd32e0 c1b03b44 
00000000 c011dbaf c1217650 c2fd32e0 
Aug 31 23:05:00 ronispc kernel:        00000000 c12176ec 00000013 c09e24e0 
00000000 00000001 c12176ec 00000011 
Aug 31 23:05:00 ronispc kernel: Call Trace: [<c012ef62>] [<c011dbaf>] 
[<c013c7d7>] [<c01452b7>] [<c01452a8>] [<c012ed21>] [<c012f0e0>] 
Aug 31 23:05:00 ronispc kernel:        [<c012f2e2>] [<c013747e>] [<c011dbaf>] 
[<c019deb4>] [<c011f0e8>] [<c012826f>] [<c012d94e>] [<c012dfee>] 
Aug 31 23:05:00 ronispc kernel:        [<c012d57a>] [<c012e2f3>] [<c012e31b>] 
[<c012e233>] [<c0106ba9>] [<c0107d4d>] [<c0107c14>] 
Aug 31 23:05:00 ronispc kernel: Code: 8b 6d 00 8b 44 24 18 39 43 48 75 58 8b 54 
24 30 39 53 0c 75 
>>EIP; c01348d4 <d_lookup+58/d0>   <=====
Trace; c012ef62 <lookup_dentry+14e/384>
Trace; c011dbaf <do_generic_file_read+67b/688>
Trace; c013c7d7 <ext2_permission+8b/f4>
Trace; c01452b7 <ext2_follow_link+67/88>
Trace; c01452a8 <ext2_follow_link+58/88>
Trace; c012ed21 <permission+29/11c>
Trace; c012f0e0 <lookup_dentry+2cc/384>
Trace; c012f2e2 <open_namei+6a/30c>
Trace; c013747e <load_elf_binary+2ee/ae8>
Trace; c011dbaf <do_generic_file_read+67b/688>
Trace; c019deb4 <cprt+374/3b05>
Trace; c011f0e8 <file_read_actor+0/50>
Trace; c012826f <init_private_file+6f/80>
Trace; c012d94e <read_exec+122/134>
Trace; c012dfee <search_binary_handler+3e/114>
Trace; c012d57a <copy_strings+8a/1b0>
Trace; c012e2f3 <do_execve+22f/2e4>
Trace; c012e31b <do_execve+257/2e4>
Trace; c012e233 <do_execve+16f/2e4>
Trace; c0106ba9 <sys_execve+35/60>
Trace; c0107d4d <error_code+2d/40>
Trace; c0107c14 <system_call+34/40>
Code;  c01348d4 <d_lookup+58/d0>
00000000 <_EIP>:
Code;  c01348d4 <d_lookup+58/d0>   <=====
   0:   8b 6d 00          movl   0x0(%ebp),%ebp   <=====
Code;  c01348d7 <d_lookup+5b/d0>
   3:   8b 44 24 18       movl   0x18(%esp,1),%eax
Code;  c01348db <d_lookup+5f/d0>
   7:   39 43 48          cmpl   %eax,0x48(%ebx)
Code;  c01348de <d_lookup+62/d0>
   a:   75 58             jne    64 <_EIP+0x64> c0134938 <d_lookup+bc/d0>
Code;  c01348e0 <d_lookup+64/d0>
   c:   8b 54 24 30       movl   0x30(%esp,1),%edx
Code;  c01348e4 <d_lookup+68/d0>
  10:   39 53 0c          cmpl   %edx,0xc(%ebx)
Code;  c01348e7 <d_lookup+6b/d0>
  13:   75 00             jne    15 <_EIP+0x15> c01348e9 <d_lookup+6d/d0>
Aug 31 23:05:00 ronispc kernel: Unable to handle kernel paging request at 
virtual address caf5b958
Aug 31 23:05:00 ronispc kernel: current->tss.cr3 = 02e34000, Lr3 = 02e34000
Aug 31 23:05:00 ronispc kernel: *pde = 00000000
Aug 31 23:05:00 ronispc kernel: Oops: 0000
Aug 31 23:05:00 ronispc kernel: CPU:    0
Aug 31 23:05:00 ronispc kernel: EIP:    0010:[<c01348d4>]
Aug 31 23:05:00 ronispc kernel: EFLAGS: 00010206
Aug 31 23:05:00 ronispc kernel: eax: 367c491a   ebx: caf5b940   ecx: c12176ec   
edx: c01d5c58
Aug 31 23:05:00 ronispc kernel: esi: 00000000   edi: c2fd32e0   ebp: caf5b958   
esp: c1b03aec
Aug 31 23:05:00 ronispc kernel: ds: 0018   es: 0018   ss: 0018
Aug 31 23:05:00 ronispc kernel: Process runbench (pid: 24970, process nr: 41, 
stackpage=c1b03000)
Aug 31 23:05:00 ronispc kernel: Stack: c2fd32e0 c12176fd c01d5c58 c12176ec 
367c491a 00000011 00000013 00000000 
Aug 31 23:05:00 ronispc kernel:        c024ecf0 c012ef62 c2fd32e0 c1b03b44 
00000000 c011dbaf c1217650 c2fd32e0 
Aug 31 23:05:00 ronispc kernel:        00000000 c12176ec 00000013 c09e21a0 
00000000 00000001 c12176ec 00000011 
Aug 31 23:05:00 ronispc kernel: Call Trace: [<c012ef62>] [<c011dbaf>] 
[<c013c7d7>] [<c01452b7>] [<c01452a8>] [<c012ed21>] [<c012f0e0>] 
Aug 31 23:05:00 ronispc kernel:        [<c012f2e2>] [<c013747e>] [<c011dbaf>] 
[<c019deb4>] [<c011f0e8>] [<c012826f>] [<c012d94e>] [<c012dfee>] 
Aug 31 23:05:00 ronispc kernel:        [<c012d57a>] [<c012e2f3>] [<c012e31b>] 
[<c012e233>] [<c0106ba9>] [<c0107d4d>] [<c0107c14>] 
Aug 31 23:05:00 ronispc kernel: Code: 8b 6d 00 8b 44 24 18 39 43 48 75 58 8b 54 
24 30 39 53 0c 75 
>>EIP; c01348d4 <d_lookup+58/d0>   <=====
Trace; c012ef62 <lookup_dentry+14e/384>
Trace; c011dbaf <do_generic_file_read+67b/688>
Trace; c013c7d7 <ext2_permission+8b/f4>
Trace; c01452b7 <ext2_follow_link+67/88>
Trace; c01452a8 <ext2_follow_link+58/88>
Trace; c012ed21 <permission+29/11c>
Trace; c012f0e0 <lookup_dentry+2cc/384>
Trace; c012f2e2 <open_namei+6a/30c>
Trace; c013747e <load_elf_binary+2ee/ae8>
Trace; c011dbaf <do_generic_file_read+67b/688>
Trace; c019deb4 <cprt+374/3b05>
Trace; c011f0e8 <file_read_actor+0/50>
Trace; c012826f <init_private_file+6f/80>
Trace; c012d94e <read_exec+122/134>
Trace; c012dfee <search_binary_handler+3e/114>
Trace; c012d57a <copy_strings+8a/1b0>
Trace; c012e2f3 <do_execve+22f/2e4>
Trace; c012e31b <do_execve+257/2e4>
Trace; c012e233 <do_execve+16f/2e4>
Trace; c0106ba9 <sys_execve+35/60>
Trace; c0107d4d <error_code+2d/40>
Trace; c0107c14 <system_call+34/40>
Code;  c01348d4 <d_lookup+58/d0>
00000000 <_EIP>:
Code;  c01348d4 <d_lookup+58/d0>   <=====
   0:   8b 6d 00          movl   0x0(%ebp),%ebp   <=====
Code;  c01348d7 <d_lookup+5b/d0>
   3:   8b 44 24 18       movl   0x18(%esp,1),%eax
Code;  c01348db <d_lookup+5f/d0>
   7:   39 43 48          cmpl   %eax,0x48(%ebx)
Code;  c01348de <d_lookup+62/d0>
   a:   75 58             jne    64 <_EIP+0x64> c0134938 <d_lookup+bc/d0>
Code;  c01348e0 <d_lookup+64/d0>
   c:   8b 54 24 30       movl   0x30(%esp,1),%edx
Code;  c01348e4 <d_lookup+68/d0>
  10:   39 53 0c          cmpl   %edx,0xc(%ebx)
Code;  c01348e7 <d_lookup+6b/d0>
  13:   75 00             jne    15 <_EIP+0x15> c01348e9 <d_lookup+6d/d0>
Aug 31 23:05:00 ronispc kernel: Unable to handle kernel paging request at 
virtual address caf5b958
Aug 31 23:05:00 ronispc kernel: current->tss.cr3 = 02e34000, Lr3 = 02e34000
Aug 31 23:05:00 ronispc kernel: *pde = 00000000
Aug 31 23:05:00 ronispc kernel: Oops: 0000
Aug 31 23:05:00 ronispc kernel: CPU:    0
Aug 31 23:05:00 ronispc kernel: EIP:    0010:[<c01348d4>]
Aug 31 23:05:00 ronispc kernel: EFLAGS: 00010206
Aug 31 23:05:00 ronispc kernel: eax: 367c491a   ebx: caf5b940   ecx: c12176ec   
edx: c01d5c58
Aug 31 23:05:00 ronispc kernel: esi: 00000000   edi: c2fd32e0   ebp: caf5b958   
esp: c1b03aec
Aug 31 23:05:00 ronispc kernel: ds: 0018   es: 0018   ss: 0018
Aug 31 23:05:00 ronispc kernel: Process runbench (pid: 24971, process nr: 41, 
stackpage=c1b03000)
Aug 31 23:05:00 ronispc kernel: Stack: c2fd32e0 c12176fd c01d5c58 c12176ec 
367c491a 00000011 00000013 00000000 
Aug 31 23:05:00 ronispc kernel:        c0219780 c012ef62 c2fd32e0 c1b03b44 
00000000 c011dbaf c1217650 c2fd32e0 
Aug 31 23:05:00 ronispc kernel:        00000000 c12176ec 00000013 c09e2560 
00000000 00000001 c12176ec 00000011 
Aug 31 23:05:00 ronispc kernel: Call Trace: [<c012ef62>] [<c011dbaf>] 
[<c013c7d7>] [<c01452b7>] [<c01452a8>] [<c012ed21>] [<c012f0e0>] 
Aug 31 23:05:00 ronispc kernel:        [<c012f2e2>] [<c013747e>] [<c011dbaf>] 
[<c019deb4>] [<c011f0e8>] [<c012826f>] [<c012d94e>] [<c012dfee>] 
Aug 31 23:05:00 ronispc kernel:        [<c012d57a>] [<c012e2f3>] [<c012e31b>] 
[<c012e233>] [<c0106ba9>] [<c0107d4d>] [<c0107c14>] 
Aug 31 23:05:00 ronispc kernel: Code: 8b 6d 00 8b 44 24 18 39 43 48 75 58 8b 54 
24 30 39 53 0c 75 
>>EIP; c01348d4 <d_lookup+58/d0>   <=====
Trace; c012ef62 <lookup_dentry+14e/384>
Trace; c011dbaf <do_generic_file_read+67b/688>
Trace; c013c7d7 <ext2_permission+8b/f4>
Trace; c01452b7 <ext2_follow_link+67/88>
Trace; c01452a8 <ext2_follow_link+58/88>
Trace; c012ed21 <permission+29/11c>
Trace; c012f0e0 <lookup_dentry+2cc/384>
Trace; c012f2e2 <open_namei+6a/30c>
Trace; c013747e <load_elf_binary+2ee/ae8>
Trace; c011dbaf <do_generic_file_read+67b/688>
Trace; c019deb4 <cprt+374/3b05>
Trace; c011f0e8 <file_read_actor+0/50>
Trace; c012826f <init_private_file+6f/80>
Trace; c012d94e <read_exec+122/134>
Trace; c012dfee <search_binary_handler+3e/114>
Trace; c012d57a <copy_strings+8a/1b0>
Trace; c012e2f3 <do_execve+22f/2e4>
Trace; c012e31b <do_execve+257/2e4>
Trace; c012e233 <do_execve+16f/2e4>
Trace; c0106ba9 <sys_execve+35/60>
Trace; c0107d4d <error_code+2d/40>
Trace; c0107c14 <system_call+34/40>
Code;  c01348d4 <d_lookup+58/d0>
00000000 <_EIP>:
Code;  c01348d4 <d_lookup+58/d0>   <=====
   0:   8b 6d 00          movl   0x0(%ebp),%ebp   <=====
Code;  c01348d7 <d_lookup+5b/d0>
   3:   8b 44 24 18       movl   0x18(%esp,1),%eax
Code;  c01348db <d_lookup+5f/d0>
   7:   39 43 48          cmpl   %eax,0x48(%ebx)
Code;  c01348de <d_lookup+62/d0>
   a:   75 58             jne    64 <_EIP+0x64> c0134938 <d_lookup+bc/d0>
Code;  c01348e0 <d_lookup+64/d0>
   c:   8b 54 24 30       movl   0x30(%esp,1),%edx
Code;  c01348e4 <d_lookup+68/d0>
  10:   39 53 0c          cmpl   %edx,0xc(%ebx)
Code;  c01348e7 <d_lookup+6b/d0>
  13:   75 00             jne    15 <_EIP+0x15> c01348e9 <d_lookup+6d/d0>
Aug 31 23:05:00 ronispc kernel: Unable to handle kernel paging request at 
virtual address caf5b958
Aug 31 23:05:00 ronispc kernel: current->tss.cr3 = 0187f000, Lr3 = 0187f000
Aug 31 23:05:00 ronispc kernel: *pde = 00000000
Aug 31 23:05:00 ronispc kernel: Oops: 0000
Aug 31 23:05:00 ronispc kernel: CPU:    0
Aug 31 23:05:00 ronispc kernel: EIP:    0010:[<c01348d4>]
Aug 31 23:05:00 ronispc kernel: EFLAGS: 00010206
Aug 31 23:05:00 ronispc kernel: eax: 367c491a   ebx: caf5b940   ecx: c12176ec   
edx: c01d5c58
Aug 31 23:05:00 ronispc kernel: esi: 00000000   edi: c2fd32e0   ebp: caf5b958   
esp: c2a1daec
Aug 31 23:05:00 ronispc kernel: ds: 0018   es: 0018   ss: 0018
Aug 31 23:05:00 ronispc kernel: Process runbench (pid: 24974, process nr: 47, 
stackpage=c2a1d000)
Aug 31 23:05:00 ronispc kernel: Stack: c2fd32e0 c12176fd c01d5c58 c12176ec 
367c491a 00000011 00000013 00000000 
Aug 31 23:05:00 ronispc kernel:        c024ecf0 c012ef62 c2fd32e0 c2a1db44 
00000000 c011dbaf c1217650 c2fd32e0 
Aug 31 23:05:00 ronispc kernel:        00000000 c12176ec 00000013 c09e21e0 
00000000 00000001 c12176ec 00000011 
Aug 31 23:05:00 ronispc kernel: Call Trace: [<c012ef62>] [<c011dbaf>] 
[<c013c7d7>] [<c01452b7>] [<c01452a8>] [<c012ed21>] [<c012f0e0>] 
Aug 31 23:05:00 ronispc kernel:        [<c012f2e2>] [<c013747e>] [<c011dbaf>] 
[<c019deb4>] [<c011f0e8>] [<c012826f>] [<c012d94e>] [<c012dfee>] 
Aug 31 23:05:00 ronispc kernel:        [<c012d57a>] [<c012e2f3>] [<c012e31b>] 
[<c012e233>] [<c0106ba9>] [<c0107d4d>] [<c0107c14>] 
Aug 31 23:05:00 ronispc kernel: Code: 8b 6d 00 8b 44 24 18 39 43 48 75 58 8b 54 
24 30 39 53 0c 75 
>>EIP; c01348d4 <d_lookup+58/d0>   <=====
Trace; c012ef62 <lookup_dentry+14e/384>
Trace; c011dbaf <do_generic_file_read+67b/688>
Trace; c013c7d7 <ext2_permission+8b/f4>
Trace; c01452b7 <ext2_follow_link+67/88>
Trace; c01452a8 <ext2_follow_link+58/88>
Trace; c012ed21 <permission+29/11c>
Trace; c012f0e0 <lookup_dentry+2cc/384>
Trace; c012f2e2 <open_namei+6a/30c>
Trace; c013747e <load_elf_binary+2ee/ae8>
Trace; c011dbaf <do_generic_file_read+67b/688>
Trace; c019deb4 <cprt+374/3b05>
Trace; c011f0e8 <file_read_actor+0/50>
Trace; c012826f <init_private_file+6f/80>
Trace; c012d94e <read_exec+122/134>
Trace; c012dfee <search_binary_handler+3e/114>
Trace; c012d57a <copy_strings+8a/1b0>
Trace; c012e2f3 <do_execve+22f/2e4>
Trace; c012e31b <do_execve+257/2e4>
Trace; c012e233 <do_execve+16f/2e4>
Trace; c0106ba9 <sys_execve+35/60>
Trace; c0107d4d <error_code+2d/40>
Trace; c0107c14 <system_call+34/40>
Code;  c01348d4 <d_lookup+58/d0>
00000000 <_EIP>:
Code;  c01348d4 <d_lookup+58/d0>   <=====
   0:   8b 6d 00          movl   0x0(%ebp),%ebp   <=====
Code;  c01348d7 <d_lookup+5b/d0>
   3:   8b 44 24 18       movl   0x18(%esp,1),%eax
Code;  c01348db <d_lookup+5f/d0>
   7:   39 43 48          cmpl   %eax,0x48(%ebx)
Code;  c01348de <d_lookup+62/d0>
   a:   75 58             jne    64 <_EIP+0x64> c0134938 <d_lookup+bc/d0>
Code;  c01348e0 <d_lookup+64/d0>
   c:   8b 54 24 30       movl   0x30(%esp,1),%edx
Code;  c01348e4 <d_lookup+68/d0>
  10:   39 53 0c          cmpl   %edx,0xc(%ebx)
Code;  c01348e7 <d_lookup+6b/d0>
  13:   75 00             jne    15 <_EIP+0x15> c01348e9 <d_lookup+6d/d0>
Aug 31 23:05:00 ronispc kernel: Unable to handle kernel paging request at 
virtual address caf5b958
Aug 31 23:05:00 ronispc kernel: current->tss.cr3 = 0187f000, Lr3 = 0187f000
Aug 31 23:05:00 ronispc kernel: *pde = 00000000
Aug 31 23:05:00 ronispc kernel: Oops: 0000
Aug 31 23:05:00 ronispc kernel: CPU:    0
Aug 31 23:05:00 ronispc kernel: EIP:    0010:[<c01348d4>]
Aug 31 23:05:00 ronispc kernel: EFLAGS: 00010206
Aug 31 23:05:00 ronispc kernel: eax: 367c491a   ebx: caf5b940   ecx: c12176ec   
edx: c01d5c58
Aug 31 23:05:00 ronispc kernel: esi: 00000000   edi: c2fd32e0   ebp: caf5b958   
esp: c2a1daec
Aug 31 23:05:00 ronispc kernel: ds: 0018   es: 0018   ss: 0018
Aug 31 23:05:00 ronispc kernel: Process runbench (pid: 24975, process nr: 47, 
stackpage=c2a1d000)
Aug 31 23:05:00 ronispc kernel: Stack: c2fd32e0 c12176fd c01d5c58 c12176ec 
367c491a 00000011 00000013 00000000 
Aug 31 23:05:00 ronispc kernel:        c0219780 c012ef62 c2fd32e0 c2a1db44 
00000000 c011dbaf c1217650 c2fd32e0 
Aug 31 23:05:00 ronispc kernel:        00000000 c12176ec 00000013 c09e2520 
00000000 00000001 c12176ec 00000011 
Aug 31 23:05:00 ronispc kernel: Call Trace: [<c012ef62>] [<c011dbaf>] 
[<c013c7d7>] [<c01452b7>] [<c01452a8>] [<c012ed21>] [<c012f0e0>] 
Aug 31 23:05:00 ronispc kernel:        [<c012f2e2>] [<c013747e>] [<c011dbaf>] 
[<c019deb4>] [<c011f0e8>] [<c012826f>] [<c012d94e>] [<c012dfee>] 
Aug 31 23:05:00 ronispc kernel:        [<c012d57a>] [<c012e2f3>] [<c012e31b>] 
[<c012e233>] [<c0106ba9>] [<c0107d4d>] [<c0107c14>] 
Aug 31 23:05:00 ronispc kernel: Code: 8b 6d 00 8b 44 24 18 39 43 48 75 58 8b 54 
24 30 39 53 0c 75 
>>EIP; c01348d4 <d_lookup+58/d0>   <=====
Trace; c012ef62 <lookup_dentry+14e/384>
Trace; c011dbaf <do_generic_file_read+67b/688>
Trace; c013c7d7 <ext2_permission+8b/f4>
Trace; c01452b7 <ext2_follow_link+67/88>
Trace; c01452a8 <ext2_follow_link+58/88>
Trace; c012ed21 <permission+29/11c>
Trace; c012f0e0 <lookup_dentry+2cc/384>
Trace; c012f2e2 <open_namei+6a/30c>
Trace; c013747e <load_elf_binary+2ee/ae8>
Trace; c011dbaf <do_generic_file_read+67b/688>
Trace; c019deb4 <cprt+374/3b05>
Trace; c011f0e8 <file_read_actor+0/50>
Trace; c012826f <init_private_file+6f/80>
Trace; c012d94e <read_exec+122/134>
Trace; c012dfee <search_binary_handler+3e/114>
Trace; c012d57a <copy_strings+8a/1b0>
Trace; c012e2f3 <do_execve+22f/2e4>
Trace; c012e31b <do_execve+257/2e4>
Trace; c012e233 <do_execve+16f/2e4>
Trace; c0106ba9 <sys_execve+35/60>
Trace; c0107d4d <error_code+2d/40>
Trace; c0107c14 <system_call+34/40>
Code;  c01348d4 <d_lookup+58/d0>
00000000 <_EIP>:
Code;  c01348d4 <d_lookup+58/d0>   <=====
   0:   8b 6d 00          movl   0x0(%ebp),%ebp   <=====
Code;  c01348d7 <d_lookup+5b/d0>
   3:   8b 44 24 18       movl   0x18(%esp,1),%eax
Code;  c01348db <d_lookup+5f/d0>
   7:   39 43 48          cmpl   %eax,0x48(%ebx)
Code;  c01348de <d_lookup+62/d0>
   a:   75 58             jne    64 <_EIP+0x64> c0134938 <d_lookup+bc/d0>
Code;  c01348e0 <d_lookup+64/d0>
   c:   8b 54 24 30       movl   0x30(%esp,1),%edx
Code;  c01348e4 <d_lookup+68/d0>
  10:   39 53 0c          cmpl   %edx,0xc(%ebx)
Code;  c01348e7 <d_lookup+6b/d0>
  13:   75 00             jne    15 <_EIP+0x15> c01348e9 <d_lookup+6d/d0>
Aug 31 23:05:00 ronispc kernel: Unable to handle kernel paging request at 
virtual address caf5b958
Aug 31 23:05:00 ronispc kernel: current->tss.cr3 = 02e34000, Lr3 = 02e34000
Aug 31 23:05:00 ronispc kernel: *pde = 00000000
Aug 31 23:05:00 ronispc kernel: Oops: 0000
Aug 31 23:05:00 ronispc kernel: CPU:    0
Aug 31 23:05:00 ronispc kernel: EIP:    0010:[<c01348d4>]
Aug 31 23:05:00 ronispc kernel: EFLAGS: 00010206
Aug 31 23:05:00 ronispc kernel: eax: 367c491a   ebx: caf5b940   ecx: c12176ec   
edx: c01d5c58
Aug 31 23:05:00 ronispc kernel: esi: 00000000   edi: c2fd32e0   ebp: caf5b958   
esp: c2a1daec
Aug 31 23:05:00 ronispc kernel: ds: 0018   es: 0018   ss: 0018
Aug 31 23:05:00 ronispc kernel: Process runbench (pid: 24978, process nr: 47, 
stackpage=c2a1d000)
Aug 31 23:05:00 ronispc kernel: Stack: c2fd32e0 c12176fd c01d5c58 c12176ec 
367c491a 00000011 00000013 00000000 
Aug 31 23:05:00 ronispc kernel:        c024ecf0 c012ef62 c2fd32e0 c2a1db44 
00000000 c011dbaf c1217650 c2fd32e0 
Aug 31 23:05:00 ronispc kernel:        00000000 c12176ec 00000013 c103ce00 
00000000 00000001 c12176ec 00000011 
Aug 31 23:05:00 ronispc kernel: Call Trace: [<c012ef62>] [<c011dbaf>] 
[<c013c7d7>] [<c01452b7>] [<c01452a8>] [<c012ed21>] [<c012f0e0>] 
Aug 31 23:05:00 ronispc kernel:        [<c012f2e2>] [<c013747e>] [<c011dbaf>] 
[<c019deb4>] [<c011f0e8>] [<c012826f>] [<c012d94e>] [<c012dfee>] 
Aug 31 23:05:00 ronispc kernel:        [<c012d57a>] [<c012e2f3>] [<c012e31b>] 
[<c012e233>] [<c0106ba9>] [<c0107d4d>] [<c0107c14>] 
Aug 31 23:05:00 ronispc kernel: Code: 8b 6d 00 8b 44 24 18 39 43 48 75 58 8b 54 
24 30 39 53 0c 75 
>>EIP; c01348d4 <d_lookup+58/d0>   <=====
Trace; c012ef62 <lookup_dentry+14e/384>
Trace; c011dbaf <do_generic_file_read+67b/688>
Trace; c013c7d7 <ext2_permission+8b/f4>
Trace; c01452b7 <ext2_follow_link+67/88>
Trace; c01452a8 <ext2_follow_link+58/88>
Trace; c012ed21 <permission+29/11c>
Trace; c012f0e0 <lookup_dentry+2cc/384>
Trace; c012f2e2 <open_namei+6a/30c>
Trace; c013747e <load_elf_binary+2ee/ae8>
Trace; c011dbaf <do_generic_file_read+67b/688>
Trace; c019deb4 <cprt+374/3b05>
Trace; c011f0e8 <file_read_actor+0/50>
Trace; c012826f <init_private_file+6f/80>
Trace; c012d94e <read_exec+122/134>
Trace; c012dfee <search_binary_handler+3e/114>
Trace; c012d57a <copy_strings+8a/1b0>
Trace; c012e2f3 <do_execve+22f/2e4>
Trace; c012e31b <do_execve+257/2e4>
Trace; c012e233 <do_execve+16f/2e4>
Trace; c0106ba9 <sys_execve+35/60>
Trace; c0107d4d <error_code+2d/40>
Trace; c0107c14 <system_call+34/40>
Code;  c01348d4 <d_lookup+58/d0>
00000000 <_EIP>:
Code;  c01348d4 <d_lookup+58/d0>   <=====
   0:   8b 6d 00          movl   0x0(%ebp),%ebp   <=====
Code;  c01348d7 <d_lookup+5b/d0>
   3:   8b 44 24 18       movl   0x18(%esp,1),%eax
Code;  c01348db <d_lookup+5f/d0>
   7:   39 43 48          cmpl   %eax,0x48(%ebx)
Code;  c01348de <d_lookup+62/d0>
   a:   75 58             jne    64 <_EIP+0x64> c0134938 <d_lookup+bc/d0>
Code;  c01348e0 <d_lookup+64/d0>
   c:   8b 54 24 30       movl   0x30(%esp,1),%edx
Code;  c01348e4 <d_lookup+68/d0>
  10:   39 53 0c          cmpl   %edx,0xc(%ebx)
Code;  c01348e7 <d_lookup+6b/d0>
  13:   75 00             jne    15 <_EIP+0x15> c01348e9 <d_lookup+6d/d0>
Aug 31 23:05:00 ronispc kernel: Unable to handle kernel paging request at 
virtual address caf5b958
Aug 31 23:05:00 ronispc kernel: current->tss.cr3 = 02e34000, Lr3 = 02e34000
Aug 31 23:05:00 ronispc kernel: *pde = 00000000
Aug 31 23:05:00 ronispc kernel: Oops: 0000
Aug 31 23:05:00 ronispc kernel: CPU:    0
Aug 31 23:05:00 ronispc kernel: EIP:    0010:[<c01348d4>]
Aug 31 23:05:00 ronispc kernel: EFLAGS: 00010206
Aug 31 23:05:00 ronispc kernel: eax: 367c491a   ebx: caf5b940   ecx: c12176ec   
edx: c01d5c58
Aug 31 23:05:00 ronispc kernel: esi: 00000000   edi: c2fd32e0   ebp: caf5b958   
esp: c2a1daec
Aug 31 23:05:00 ronispc kernel: ds: 0018   es: 0018   ss: 0018
Aug 31 23:05:00 ronispc kernel: Process runbench (pid: 24979, process nr: 47, 
stackpage=c2a1d000)
Aug 31 23:05:00 ronispc kernel: Stack: c2fd32e0 c12176fd c01d5c58 c12176ec 
367c491a 00000011 00000013 00000000 
Aug 31 23:05:00 ronispc kernel:        c0219780 c012ef62 c2fd32e0 c2a1db44 
00000000 c011dbaf c1217650 c2fd32e0 
Aug 31 23:05:00 ronispc kernel:        00000000 c12176ec 00000013 c103cf80 
00000000 00000001 c12176ec 00000011 
Aug 31 23:05:00 ronispc kernel: Call Trace: [<c012ef62>] [<c011dbaf>] 
[<c013c7d7>] [<c01452b7>] [<c01452a8>] [<c012ed21>] [<c012f0e0>] 
Aug 31 23:05:00 ronispc kernel:        [<c012f2e2>] [<c013747e>] [<c011dbaf>] 
[<c019deb4>] [<c011f0e8>] [<c012826f>] [<c012d94e>] [<c012dfee>] 
Aug 31 23:05:00 ronispc kernel:        [<c012d57a>] [<c012e2f3>] [<c012e31b>] 
[<c012e233>] [<c0106ba9>] [<c0107d4d>] [<c0107c14>] 
Aug 31 23:05:00 ronispc kernel: Code: 8b 6d 00 8b 44 24 18 39 43 48 75 58 8b 54 
24 30 39 53 0c 75 
>>EIP; c01348d4 <d_lookup+58/d0>   <=====
Trace; c012ef62 <lookup_dentry+14e/384>
Trace; c011dbaf <do_generic_file_read+67b/688>
Trace; c013c7d7 <ext2_permission+8b/f4>
Trace; c01452b7 <ext2_follow_link+67/88>
Trace; c01452a8 <ext2_follow_link+58/88>
Trace; c012ed21 <permission+29/11c>
Trace; c012f0e0 <lookup_dentry+2cc/384>
Trace; c012f2e2 <open_namei+6a/30c>
Trace; c013747e <load_elf_binary+2ee/ae8>
Trace; c011dbaf <do_generic_file_read+67b/688>
Trace; c019deb4 <cprt+374/3b05>
Trace; c011f0e8 <file_read_actor+0/50>
Trace; c012826f <init_private_file+6f/80>
Trace; c012d94e <read_exec+122/134>
Trace; c012dfee <search_binary_handler+3e/114>
Trace; c012d57a <copy_strings+8a/1b0>
Trace; c012e2f3 <do_execve+22f/2e4>
Trace; c012e31b <do_execve+257/2e4>
Trace; c012e233 <do_execve+16f/2e4>
Trace; c0106ba9 <sys_execve+35/60>
Trace; c0107d4d <error_code+2d/40>
Trace; c0107c14 <system_call+34/40>
Code;  c01348d4 <d_lookup+58/d0>
00000000 <_EIP>:
Code;  c01348d4 <d_lookup+58/d0>   <=====
   0:   8b 6d 00          movl   0x0(%ebp),%ebp   <=====
Code;  c01348d7 <d_lookup+5b/d0>
   3:   8b 44 24 18       movl   0x18(%esp,1),%eax
Code;  c01348db <d_lookup+5f/d0>
   7:   39 43 48          cmpl   %eax,0x48(%ebx)
Code;  c01348de <d_lookup+62/d0>
   a:   75 58             jne    64 <_EIP+0x64> c0134938 <d_lookup+bc/d0>
Code;  c01348e0 <d_lookup+64/d0>
   c:   8b 54 24 30       movl   0x30(%esp,1),%edx
Code;  c01348e4 <d_lookup+68/d0>
  10:   39 53 0c          cmpl   %edx,0xc(%ebx)
Code;  c01348e7 <d_lookup+6b/d0>
  13:   75 00             jne    15 <_EIP+0x15> c01348e9 <d_lookup+6d/d0>
Aug 31 23:05:00 ronispc kernel: Unable to handle kernel paging request at 
virtual address caf5b958
Aug 31 23:05:00 ronispc kernel: current->tss.cr3 = 0187f000, Lr3 = 0187f000
Aug 31 23:05:00 ronispc kernel: *pde = 00000000
Aug 31 23:05:00 ronispc kernel: Oops: 0000
Aug 31 23:05:00 ronispc kernel: CPU:    0
Aug 31 23:05:00 ronispc kernel: EIP:    0010:[<c01348d4>]
Aug 31 23:05:00 ronispc kernel: EFLAGS: 00010206
Aug 31 23:05:00 ronispc kernel: eax: 367c491a   ebx: caf5b940   ecx: c12176ec   
edx: c01d5c58
Aug 31 23:05:00 ronispc kernel: esi: 00000000   edi: c2fd32e0   ebp: caf5b958   
esp: c1b03aec
Aug 31 23:05:00 ronispc kernel: ds: 0018   es: 0018   ss: 0018
Aug 31 23:05:00 ronispc kernel: Process runbench (pid: 24982, process nr: 41, 
stackpage=c1b03000)
Aug 31 23:05:00 ronispc kernel: Stack: c2fd32e0 c12176fd c01d5c58 c12176ec 
367c491a 00000011 00000013 00000000 
Aug 31 23:05:00 ronispc kernel:        c024ecf0 c012ef62 c2fd32e0 c1b03b44 
00000000 c011dbaf c1217650 c2fd32e0 
Aug 31 23:05:00 ronispc kernel:        00000000 c12176ec 00000013 c103cd00 
00000000 00000001 c12176ec 00000011 
Aug 31 23:05:00 ronispc kernel: Call Trace: [<c012ef62>] [<c011dbaf>] 
[<c013c7d7>] [<c01452b7>] [<c01452a8>] [<c012ed21>] [<c012f0e0>] 
Aug 31 23:05:00 ronispc kernel:        [<c012f2e2>] [<c013747e>] [<c011dbaf>] 
[<c019deb4>] [<c011f0e8>] [<c012826f>] [<c012d94e>] [<c012dfee>] 
Aug 31 23:05:00 ronispc kernel:        [<c012d57a>] [<c012e2f3>] [<c012e31b>] 
[<c012e233>] [<c0106ba9>] [<c0107d4d>] [<c0107c14>] 
Aug 31 23:05:00 ronispc kernel: Code: 8b 6d 00 8b 44 24 18 39 43 48 75 58 8b 54 
24 30 39 53 0c 75 
>>EIP; c01348d4 <d_lookup+58/d0>   <=====
Trace; c012ef62 <lookup_dentry+14e/384>
Trace; c011dbaf <do_generic_file_read+67b/688>
Trace; c013c7d7 <ext2_permission+8b/f4>
Trace; c01452b7 <ext2_follow_link+67/88>
Trace; c01452a8 <ext2_follow_link+58/88>
Trace; c012ed21 <permission+29/11c>
Trace; c012f0e0 <lookup_dentry+2cc/384>
Trace; c012f2e2 <open_namei+6a/30c>
Trace; c013747e <load_elf_binary+2ee/ae8>
Trace; c011dbaf <do_generic_file_read+67b/688>
Trace; c019deb4 <cprt+374/3b05>
Trace; c011f0e8 <file_read_actor+0/50>
Trace; c012826f <init_private_file+6f/80>
Trace; c012d94e <read_exec+122/134>
Trace; c012dfee <search_binary_handler+3e/114>
Trace; c012d57a <copy_strings+8a/1b0>
Trace; c012e2f3 <do_execve+22f/2e4>
Trace; c012e31b <do_execve+257/2e4>
Trace; c012e233 <do_execve+16f/2e4>
Trace; c0106ba9 <sys_execve+35/60>
Trace; c0107d4d <error_code+2d/40>
Trace; c0107c14 <system_call+34/40>
Code;  c01348d4 <d_lookup+58/d0>
00000000 <_EIP>:
Code;  c01348d4 <d_lookup+58/d0>   <=====
   0:   8b 6d 00          movl   0x0(%ebp),%ebp   <=====
Code;  c01348d7 <d_lookup+5b/d0>
   3:   8b 44 24 18       movl   0x18(%esp,1),%eax
Code;  c01348db <d_lookup+5f/d0>
   7:   39 43 48          cmpl   %eax,0x48(%ebx)
Code;  c01348de <d_lookup+62/d0>
   a:   75 58             jne    64 <_EIP+0x64> c0134938 <d_lookup+bc/d0>
Code;  c01348e0 <d_lookup+64/d0>
   c:   8b 54 24 30       movl   0x30(%esp,1),%edx
Code;  c01348e4 <d_lookup+68/d0>
  10:   39 53 0c          cmpl   %edx,0xc(%ebx)
Code;  c01348e7 <d_lookup+6b/d0>
  13:   75 00             jne    15 <_EIP+0x15> c01348e9 <d_lookup+6d/d0>
Aug 31 23:05:00 ronispc kernel: Unable to handle kernel paging request at 
virtual address caf5b958
Aug 31 23:05:00 ronispc kernel: current->tss.cr3 = 0187f000, Lr3 = 0187f000
Aug 31 23:05:00 ronispc kernel: *pde = 00000000
Aug 31 23:05:00 ronispc kernel: Oops: 0000
Aug 31 23:05:00 ronispc kernel: CPU:    0
Aug 31 23:05:00 ronispc kernel: EIP:    0010:[<c01348d4>]
Aug 31 23:05:00 ronispc kernel: EFLAGS: 00010206
Aug 31 23:05:00 ronispc kernel: eax: 367c491a   ebx: caf5b940   ecx: c12176ec   
edx: c01d5c58
Aug 31 23:05:00 ronispc kernel: esi: 00000000   edi: c2fd32e0   ebp: caf5b958   
esp: c1b03aec
Aug 31 23:05:00 ronispc kernel: ds: 0018   es: 0018   ss: 0018
Aug 31 23:05:00 ronispc kernel: Process runbench (pid: 24983, process nr: 41, 
stackpage=c1b03000)
Aug 31 23:05:00 ronispc kernel: Stack: c2fd32e0 c12176fd c01d5c58 c12176ec 
367c491a 00000011 00000013 00000000 
Aug 31 23:05:00 ronispc kernel:        c0219780 c012ef62 c2fd32e0 c1b03b44 
00000000 c011dbaf c1217650 c2fd32e0 
Aug 31 23:05:00 ronispc kernel:        00000000 c12176ec 00000013 c103ca40 
00000000 00000001 c12176ec 00000011 
Aug 31 23:05:00 ronispc kernel: Call Trace: [<c012ef62>] [<c011dbaf>] 
[<c013c7d7>] [<c01452b7>] [<c01452a8>] [<c012ed21>] [<c012f0e0>] 
Aug 31 23:05:00 ronispc kernel:        [<c012f2e2>] [<c013747e>] [<c011dbaf>] 
[<c019deb4>] [<c011f0e8>] [<c012826f>] [<c012d94e>] [<c012dfee>] 
Aug 31 23:05:00 ronispc kernel:        [<c012d57a>] [<c012e2f3>] [<c012e31b>] 
[<c012e233>] [<c0106ba9>] [<c0107d4d>] [<c0107c14>] 
Aug 31 23:05:00 ronispc kernel: Code: 8b 6d 00 8b 44 24 18 39 43 48 75 58 8b 54 
24 30 39 53 0c 75 
>>EIP; c01348d4 <d_lookup+58/d0>   <=====
Trace; c012ef62 <lookup_dentry+14e/384>
Trace; c011dbaf <do_generic_file_read+67b/688>
Trace; c013c7d7 <ext2_permission+8b/f4>
Trace; c01452b7 <ext2_follow_link+67/88>
Trace; c01452a8 <ext2_follow_link+58/88>
Trace; c012ed21 <permission+29/11c>
Trace; c012f0e0 <lookup_dentry+2cc/384>
Trace; c012f2e2 <open_namei+6a/30c>
Trace; c013747e <load_elf_binary+2ee/ae8>
Trace; c011dbaf <do_generic_file_read+67b/688>
Trace; c019deb4 <cprt+374/3b05>
Trace; c011f0e8 <file_read_actor+0/50>
Trace; c012826f <init_private_file+6f/80>
Trace; c012d94e <read_exec+122/134>
Trace; c012dfee <search_binary_handler+3e/114>
Trace; c012d57a <copy_strings+8a/1b0>
Trace; c012e2f3 <do_execve+22f/2e4>
Trace; c012e31b <do_execve+257/2e4>
Trace; c012e233 <do_execve+16f/2e4>
Trace; c0106ba9 <sys_execve+35/60>
Trace; c0107d4d <error_code+2d/40>
Trace; c0107c14 <system_call+34/40>
Code;  c01348d4 <d_lookup+58/d0>
00000000 <_EIP>:
Code;  c01348d4 <d_lookup+58/d0>   <=====
   0:   8b 6d 00          movl   0x0(%ebp),%ebp   <=====
Code;  c01348d7 <d_lookup+5b/d0>
   3:   8b 44 24 18       movl   0x18(%esp,1),%eax
Code;  c01348db <d_lookup+5f/d0>
   7:   39 43 48          cmpl   %eax,0x48(%ebx)
Code;  c01348de <d_lookup+62/d0>
   a:   75 58             jne    64 <_EIP+0x64> c0134938 <d_lookup+bc/d0>
Code;  c01348e0 <d_lookup+64/d0>
   c:   8b 54 24 30       movl   0x30(%esp,1),%edx
Code;  c01348e4 <d_lookup+68/d0>
  10:   39 53 0c          cmpl   %edx,0xc(%ebx)
Code;  c01348e7 <d_lookup+6b/d0>
  13:   75 00             jne    15 <_EIP+0x15> c01348e9 <d_lookup+6d/d0>
Aug 31 23:05:00 ronispc kernel: Unable to handle kernel paging request at 
virtual address caf5b958
Aug 31 23:05:00 ronispc kernel: current->tss.cr3 = 02e34000, Lr3 = 02e34000
Aug 31 23:05:00 ronispc kernel: *pde = 00000000
Aug 31 23:05:00 ronispc kernel: Oops: 0000
Aug 31 23:05:00 ronispc kernel: CPU:    0
Aug 31 23:05:00 ronispc kernel: EIP:    0010:[<c01348d4>]
Aug 31 23:05:00 ronispc kernel: EFLAGS: 00010206
Aug 31 23:05:00 ronispc kernel: eax: 367c491a   ebx: caf5b940   ecx: c12176ec   
edx: c01d5c58
Aug 31 23:05:00 ronispc kernel: esi: 00000000   edi: c2fd32e0   ebp: caf5b958   
esp: c2a1daec
Aug 31 23:05:00 ronispc kernel: ds: 0018   es: 0018   ss: 0018
Aug 31 23:05:00 ronispc kernel: Process runbench (pid: 24986, process nr: 47, 
stackpage=c2a1d000)
Aug 31 23:05:00 ronispc kernel: Stack: c2fd32e0 c12176fd c01d5c58 c12176ec 
367c491a 00000011 00000013 00000000 
Aug 31 23:05:00 ronispc kernel:        c024ecf0 c012ef62 c2fd32e0 c2a1db44 
00000000 c011dbaf c1217650 c2fd32e0 
Aug 31 23:05:00 ronispc kernel:        00000000 c12176ec 00000013 c103cc80 
00000000 00000001 c12176ec 00000011 
Aug 31 23:05:00 ronispc kernel: Call Trace: [<c012ef62>] [<c011dbaf>] 
[<c013c7d7>] [<c01452b7>] [<c01452a8>] [<c012ed21>] [<c012f0e0>] 
Aug 31 23:05:00 ronispc kernel:        [<c012f2e2>] [<c013747e>] [<c011dbaf>] 
[<c019deb4>] [<c011f0e8>] [<c012826f>] [<c012d94e>] [<c012dfee>] 
Aug 31 23:05:00 ronispc kernel:        [<c012d57a>] [<c012e2f3>] [<c012e31b>] 
[<c012e233>] [<c0106ba9>] [<c0107d4d>] [<c0107c14>] 
Aug 31 23:05:00 ronispc kernel: Code: 8b 6d 00 8b 44 24 18 39 43 48 75 58 8b 54 
24 30 39 53 0c 75 
>>EIP; c01348d4 <d_lookup+58/d0>   <=====
Trace; c012ef62 <lookup_dentry+14e/384>
Trace; c011dbaf <do_generic_file_read+67b/688>
Trace; c013c7d7 <ext2_permission+8b/f4>
Trace; c01452b7 <ext2_follow_link+67/88>
Trace; c01452a8 <ext2_follow_link+58/88>
Trace; c012ed21 <permission+29/11c>
Trace; c012f0e0 <lookup_dentry+2cc/384>
Trace; c012f2e2 <open_namei+6a/30c>
Trace; c013747e <load_elf_binary+2ee/ae8>
Trace; c011dbaf <do_generic_file_read+67b/688>
Trace; c019deb4 <cprt+374/3b05>
Trace; c011f0e8 <file_read_actor+0/50>
Trace; c012826f <init_private_file+6f/80>
Trace; c012d94e <read_exec+122/134>
Trace; c012dfee <search_binary_handler+3e/114>
Trace; c012d57a <copy_strings+8a/1b0>
Trace; c012e2f3 <do_execve+22f/2e4>
Trace; c012e31b <do_execve+257/2e4>
Trace; c012e233 <do_execve+16f/2e4>
Trace; c0106ba9 <sys_execve+35/60>
Trace; c0107d4d <error_code+2d/40>
Trace; c0107c14 <system_call+34/40>
Code;  c01348d4 <d_lookup+58/d0>
00000000 <_EIP>:
Code;  c01348d4 <d_lookup+58/d0>   <=====
   0:   8b 6d 00          movl   0x0(%ebp),%ebp   <=====
Code;  c01348d7 <d_lookup+5b/d0>
   3:   8b 44 24 18       movl   0x18(%esp,1),%eax
Code;  c01348db <d_lookup+5f/d0>
   7:   39 43 48          cmpl   %eax,0x48(%ebx)
Code;  c01348de <d_lookup+62/d0>
   a:   75 58             jne    64 <_EIP+0x64> c0134938 <d_lookup+bc/d0>
Code;  c01348e0 <d_lookup+64/d0>
   c:   8b 54 24 30       movl   0x30(%esp,1),%edx
Code;  c01348e4 <d_lookup+68/d0>
  10:   39 53 0c          cmpl   %edx,0xc(%ebx)
Code;  c01348e7 <d_lookup+6b/d0>
  13:   75 00             jne    15 <_EIP+0x15> c01348e9 <d_lookup+6d/d0>
Aug 31 23:05:00 ronispc kernel: Unable to handle kernel paging request at 
virtual address caf5b958
Aug 31 23:05:00 ronispc kernel: current->tss.cr3 = 02e34000, Lr3 = 02e34000
Aug 31 23:05:00 ronispc kernel: *pde = 00000000
Aug 31 23:05:00 ronispc kernel: Oops: 0000
Aug 31 23:05:00 ronispc kernel: CPU:    0
Aug 31 23:05:00 ronispc kernel: EIP:    0010:[<c01348d4>]
Aug 31 23:05:00 ronispc kernel: EFLAGS: 00010206
Aug 31 23:05:00 ronispc kernel: eax: 367c491a   ebx: caf5b940   ecx: c12176ec   
edx: c01d5c58
Aug 31 23:05:00 ronispc kernel: esi: 00000000   edi: c2fd32e0   ebp: caf5b958   
esp: c2a1daec
Aug 31 23:05:00 ronispc kernel: ds: 0018   es: 0018   ss: 0018
Aug 31 23:05:00 ronispc kernel: Process runbench (pid: 24987, process nr: 47, 
stackpage=c2a1d000)
Aug 31 23:05:00 ronispc kernel: Stack: c2fd32e0 c12176fd c01d5c58 c12176ec 
367c491a 00000011 00000013 00000000 
Aug 31 23:05:00 ronispc kernel:        c0219780 c012ef62 c2fd32e0 c2a1db44 
00000000 c011dbaf c1217650 c2fd32e0 
Aug 31 23:05:00 ronispc kernel:        00000000 c12176ec 00000013 c103cdc0 
00000000 00000001 c12176ec 00000011 
Aug 31 23:05:00 ronispc kernel: Call Trace: [<c012ef62>] [<c011dbaf>] 
[<c013c7d7>] [<c01452b7>] [<c01452a8>] [<c012ed21>] [<c012f0e0>] 
Aug 31 23:05:00 ronispc kernel:        [<c012f2e2>] [<c013747e>] [<c011dbaf>] 
[<c019deb4>] [<c011f0e8>] [<c012826f>] [<c012d94e>] [<c012dfee>] 
Aug 31 23:05:00 ronispc kernel:        [<c012d57a>] [<c012e2f3>] [<c012e31b>] 
[<c012e233>] [<c0106ba9>] [<c0107d4d>] [<c0107c14>] 
Aug 31 23:05:00 ronispc kernel: Code: 8b 6d 00 8b 44 24 18 39 43 48 75 58 8b 54 
24 30 39 53 0c 75 
>>EIP; c01348d4 <d_lookup+58/d0>   <=====
Trace; c012ef62 <lookup_dentry+14e/384>
Trace; c011dbaf <do_generic_file_read+67b/688>
Trace; c013c7d7 <ext2_permission+8b/f4>
Trace; c01452b7 <ext2_follow_link+67/88>
Trace; c01452a8 <ext2_follow_link+58/88>
Trace; c012ed21 <permission+29/11c>
Trace; c012f0e0 <lookup_dentry+2cc/384>
Trace; c012f2e2 <open_namei+6a/30c>
Trace; c013747e <load_elf_binary+2ee/ae8>
Trace; c011dbaf <do_generic_file_read+67b/688>
Trace; c019deb4 <cprt+374/3b05>
Trace; c011f0e8 <file_read_actor+0/50>
Trace; c012826f <init_private_file+6f/80>
Trace; c012d94e <read_exec+122/134>
Trace; c012dfee <search_binary_handler+3e/114>
Trace; c012d57a <copy_strings+8a/1b0>
Trace; c012e2f3 <do_execve+22f/2e4>
Trace; c012e31b <do_execve+257/2e4>
Trace; c012e233 <do_execve+16f/2e4>
Trace; c0106ba9 <sys_execve+35/60>
Trace; c0107d4d <error_code+2d/40>
Trace; c0107c14 <system_call+34/40>
Code;  c01348d4 <d_lookup+58/d0>
00000000 <_EIP>:
Code;  c01348d4 <d_lookup+58/d0>   <=====
   0:   8b 6d 00          movl   0x0(%ebp),%ebp   <=====
Code;  c01348d7 <d_lookup+5b/d0>
   3:   8b 44 24 18       movl   0x18(%esp,1),%eax
Code;  c01348db <d_lookup+5f/d0>
   7:   39 43 48          cmpl   %eax,0x48(%ebx)
Code;  c01348de <d_lookup+62/d0>
   a:   75 58             jne    64 <_EIP+0x64> c0134938 <d_lookup+bc/d0>
Code;  c01348e0 <d_lookup+64/d0>
   c:   8b 54 24 30       movl   0x30(%esp,1),%edx
Code;  c01348e4 <d_lookup+68/d0>
  10:   39 53 0c          cmpl   %edx,0xc(%ebx)
Code;  c01348e7 <d_lookup+6b/d0>
  13:   75 00             jne    15 <_EIP+0x15> c01348e9 <d_lookup+6d/d0>
Aug 31 23:05:00 ronispc kernel: Unable to handle kernel paging request at 
virtual address caf5b958
Aug 31 23:05:00 ronispc kernel: current->tss.cr3 = 0187f000, Lr3 = 0187f000
Aug 31 23:05:00 ronispc kernel: *pde = 00000000
Aug 31 23:05:00 ronispc kernel: Oops: 0000
Aug 31 23:05:00 ronispc kernel: CPU:    0
Aug 31 23:05:00 ronispc kernel: EIP:    0010:[<c01348d4>]
Aug 31 23:05:00 ronispc kernel: EFLAGS: 00010206
Aug 31 23:05:00 ronispc kernel: eax: 367c491a   ebx: caf5b940   ecx: c12176ec   
edx: c01d5c58
Aug 31 23:05:00 ronispc kernel: esi: 00000000   edi: c2fd32e0   ebp: caf5b958   
esp: c1b03aec
Aug 31 23:05:00 ronispc kernel: ds: 0018   es: 0018   ss: 0018
Aug 31 23:05:00 ronispc kernel: Process runbench (pid: 24990, process nr: 41, 
stackpage=c1b03000)
Aug 31 23:05:00 ronispc kernel: Stack: c2fd32e0 c12176fd c01d5c58 c12176ec 
367c491a 00000011 00000013 00000000 
Aug 31 23:05:00 ronispc kernel:        c024ecf0 c012ef62 c2fd32e0 c1b03b44 
00000000 c011dbaf c1217650 c2fd32e0 
Aug 31 23:05:00 ronispc kernel:        00000000 c12176ec 00000013 c103cd80 
00000000 00000001 c12176ec 00000011 
Aug 31 23:05:00 ronispc kernel: Call Trace: [<c012ef62>] [<c011dbaf>] 
[<c013c7d7>] [<c01452b7>] [<c01452a8>] [<c012ed21>] [<c012f0e0>] 
Aug 31 23:05:00 ronispc kernel:        [<c012f2e2>] [<c013747e>] [<c011dbaf>] 
[<c019deb4>] [<c011f0e8>] [<c012826f>] [<c012d94e>] [<c012dfee>] 
Aug 31 23:05:00 ronispc kernel:        [<c012d57a>] [<c012e2f3>] [<c012e31b>] 
[<c012e233>] [<c0106ba9>] [<c0107d4d>] [<c0107c14>] 
Aug 31 23:05:00 ronispc kernel: Code: 8b 6d 00 8b 44 24 18 39 43 48 75 58 8b 54 
24 30 39 53 0c 75 
>>EIP; c01348d4 <d_lookup+58/d0>   <=====
Trace; c012ef62 <lookup_dentry+14e/384>
Trace; c011dbaf <do_generic_file_read+67b/688>
Trace; c013c7d7 <ext2_permission+8b/f4>
Trace; c01452b7 <ext2_follow_link+67/88>
Trace; c01452a8 <ext2_follow_link+58/88>
Trace; c012ed21 <permission+29/11c>
Trace; c012f0e0 <lookup_dentry+2cc/384>
Trace; c012f2e2 <open_namei+6a/30c>
Trace; c013747e <load_elf_binary+2ee/ae8>
Trace; c011dbaf <do_generic_file_read+67b/688>
Trace; c019deb4 <cprt+374/3b05>
Trace; c011f0e8 <file_read_actor+0/50>
Trace; c012826f <init_private_file+6f/80>
Trace; c012d94e <read_exec+122/134>
Trace; c012dfee <search_binary_handler+3e/114>
Trace; c012d57a <copy_strings+8a/1b0>
Trace; c012e2f3 <do_execve+22f/2e4>
Trace; c012e31b <do_execve+257/2e4>
Trace; c012e233 <do_execve+16f/2e4>
Trace; c0106ba9 <sys_execve+35/60>
Trace; c0107d4d <error_code+2d/40>
Trace; c0107c14 <system_call+34/40>
Code;  c01348d4 <d_lookup+58/d0>
00000000 <_EIP>:
Code;  c01348d4 <d_lookup+58/d0>   <=====
   0:   8b 6d 00          movl   0x0(%ebp),%ebp   <=====
Code;  c01348d7 <d_lookup+5b/d0>
   3:   8b 44 24 18       movl   0x18(%esp,1),%eax
Code;  c01348db <d_lookup+5f/d0>
   7:   39 43 48          cmpl   %eax,0x48(%ebx)
Code;  c01348de <d_lookup+62/d0>
   a:   75 58             jne    64 <_EIP+0x64> c0134938 <d_lookup+bc/d0>
Code;  c01348e0 <d_lookup+64/d0>
   c:   8b 54 24 30       movl   0x30(%esp,1),%edx
Code;  c01348e4 <d_lookup+68/d0>
  10:   39 53 0c          cmpl   %edx,0xc(%ebx)
Code;  c01348e7 <d_lookup+6b/d0>
  13:   75 00             jne    15 <_EIP+0x15> c01348e9 <d_lookup+6d/d0>
Aug 31 23:05:00 ronispc kernel: Unable to handle kernel paging request at 
virtual address caf5b958
Aug 31 23:05:00 ronispc kernel: current->tss.cr3 = 0187f000, Lr3 = 0187f000
Aug 31 23:05:00 ronispc kernel: *pde = 00000000
Aug 31 23:05:00 ronispc kernel: Oops: 0000
Aug 31 23:05:00 ronispc kernel: CPU:    0
Aug 31 23:05:00 ronispc kernel: EIP:    0010:[<c01348d4>]
Aug 31 23:05:00 ronispc kernel: EFLAGS: 00010206
Aug 31 23:05:00 ronispc kernel: eax: 367c491a   ebx: caf5b940   ecx: c12176ec   
edx: c01d5c58
Aug 31 23:05:00 ronispc kernel: esi: 00000000   edi: c2fd32e0   ebp: caf5b958   
esp: c1b03aec
Aug 31 23:05:00 ronispc kernel: ds: 0018   es: 0018   ss: 0018
Aug 31 23:05:00 ronispc kernel: Process runbench (pid: 24991, process nr: 41, 
stackpage=c1b03000)
Aug 31 23:05:00 ronispc kernel: Stack: c2fd32e0 c12176fd c01d5c58 c12176ec 
367c491a 00000011 00000013 00000000 
Aug 31 23:05:00 ronispc kernel:        c0219780 c012ef62 c2fd32e0 c1b03b44 
00000000 c011dbaf c1217650 c2fd32e0 
Aug 31 23:05:00 ronispc kernel:        00000000 c12176ec 00000013 c103c040 
00000000 00000001 c12176ec 00000011 
Aug 31 23:05:00 ronispc kernel: Call Trace: [<c012ef62>] [<c011dbaf>] 
[<c013c7d7>] [<c01452b7>] [<c01452a8>] [<c012ed21>] [<c012f0e0>] 
Aug 31 23:05:00 ronispc kernel:        [<c012f2e2>] [<c013747e>] [<c011dbaf>] 
[<c019deb4>] [<c011f0e8>] [<c012826f>] [<c012d94e>] [<c012dfee>] 
Aug 31 23:05:00 ronispc kernel:        [<c012d57a>] [<c012e2f3>] [<c012e31b>] 
[<c012e233>] [<c0106ba9>] [<c0107d4d>] [<c0107c14>] 
Aug 31 23:05:00 ronispc kernel: Code: 8b 6d 00 8b 44 24 18 39 43 48 75 58 8b 54 
24 30 39 53 0c 75 
>>EIP; c01348d4 <d_lookup+58/d0>   <=====
Trace; c012ef62 <lookup_dentry+14e/384>
Trace; c011dbaf <do_generic_file_read+67b/688>
Trace; c013c7d7 <ext2_permission+8b/f4>
Trace; c01452b7 <ext2_follow_link+67/88>
Trace; c01452a8 <ext2_follow_link+58/88>
Trace; c012ed21 <permission+29/11c>
Trace; c012f0e0 <lookup_dentry+2cc/384>
Trace; c012f2e2 <open_namei+6a/30c>
Trace; c013747e <load_elf_binary+2ee/ae8>
Trace; c011dbaf <do_generic_file_read+67b/688>
Trace; c019deb4 <cprt+374/3b05>
Trace; c011f0e8 <file_read_actor+0/50>
Trace; c012826f <init_private_file+6f/80>
Trace; c012d94e <read_exec+122/134>
Trace; c012dfee <search_binary_handler+3e/114>
Trace; c012d57a <copy_strings+8a/1b0>
Trace; c012e2f3 <do_execve+22f/2e4>
Trace; c012e31b <do_execve+257/2e4>
Trace; c012e233 <do_execve+16f/2e4>
Trace; c0106ba9 <sys_execve+35/60>
Trace; c0107d4d <error_code+2d/40>
Trace; c0107c14 <system_call+34/40>
Code;  c01348d4 <d_lookup+58/d0>
00000000 <_EIP>:
Code;  c01348d4 <d_lookup+58/d0>   <=====
   0:   8b 6d 00          movl   0x0(%ebp),%ebp   <=====
Code;  c01348d7 <d_lookup+5b/d0>
   3:   8b 44 24 18       movl   0x18(%esp,1),%eax
Code;  c01348db <d_lookup+5f/d0>
   7:   39 43 48          cmpl   %eax,0x48(%ebx)
Code;  c01348de <d_lookup+62/d0>
   a:   75 58             jne    64 <_EIP+0x64> c0134938 <d_lookup+bc/d0>
Code;  c01348e0 <d_lookup+64/d0>
   c:   8b 54 24 30       movl   0x30(%esp,1),%edx
Code;  c01348e4 <d_lookup+68/d0>
  10:   39 53 0c          cmpl   %edx,0xc(%ebx)
Code;  c01348e7 <d_lookup+6b/d0>
  13:   75 00             jne    15 <_EIP+0x15> c01348e9 <d_lookup+6d/d0>
Aug 31 23:05:00 ronispc kernel: Unable to handle kernel paging request at 
virtual address caf5b958
Aug 31 23:05:00 ronispc kernel: current->tss.cr3 = 0187f000, Lr3 = 0187f000
Aug 31 23:05:00 ronispc kernel: *pde = 00000000
Aug 31 23:05:00 ronispc kernel: Oops: 0000
Aug 31 23:05:00 ronispc kernel: CPU:    0
Aug 31 23:05:00 ronispc kernel: EIP:    0010:[<c01348d4>]
Aug 31 23:05:00 ronispc kernel: EFLAGS: 00010206
Aug 31 23:05:00 ronispc kernel: eax: 367c491a   ebx: caf5b940   ecx: c12176ec   
edx: c01d5c58
Aug 31 23:05:00 ronispc kernel: esi: 00000000   edi: c2fd32e0   ebp: caf5b958   
esp: c2a1daec
Aug 31 23:05:00 ronispc kernel: ds: 0018   es: 0018   ss: 0018
Aug 31 23:05:00 ronispc kernel: Process runbench (pid: 24994, process nr: 47, 
stackpage=c2a1d000)
Aug 31 23:05:00 ronispc kernel: Stack: c2fd32e0 c12176fd c01d5c58 c12176ec 
367c491a 00000011 00000013 00000000 
Aug 31 23:05:00 ronispc kernel:        c024ecf0 c012ef62 c2fd32e0 c2a1db44 
00000000 c011dbaf c1217650 c2fd32e0 
Aug 31 23:05:00 ronispc kernel:        00000000 c12176ec 00000013 c103cb40 
00000000 00000001 c12176ec 00000011 
Aug 31 23:05:00 ronispc kernel: Call Trace: [<c012ef62>] [<c011dbaf>] 
[<c013c7d7>] [<c01452b7>] [<c01452a8>] [<c012ed21>] [<c012f0e0>] 
Aug 31 23:05:00 ronispc kernel:        [<c012f2e2>] [<c013747e>] [<c011dbaf>] 
[<c019deb4>] [<c011f0e8>] [<c012826f>] [<c012d94e>] [<c012dfee>] 
Aug 31 23:05:00 ronispc kernel:        [<c012d57a>] [<c012e2f3>] [<c012e31b>] 
[<c012e233>] [<c0106ba9>] [<c0107d4d>] [<c0107c14>] 
Aug 31 23:05:00 ronispc kernel: Code: 8b 6d 00 8b 44 24 18 39 43 48 75 58 8b 54 
24 30 39 53 0c 75 
>>EIP; c01348d4 <d_lookup+58/d0>   <=====
Trace; c012ef62 <lookup_dentry+14e/384>
Trace; c011dbaf <do_generic_file_read+67b/688>
Trace; c013c7d7 <ext2_permission+8b/f4>
Trace; c01452b7 <ext2_follow_link+67/88>
Trace; c01452a8 <ext2_follow_link+58/88>
Trace; c012ed21 <permission+29/11c>
Trace; c012f0e0 <lookup_dentry+2cc/384>
Trace; c012f2e2 <open_namei+6a/30c>
Trace; c013747e <load_elf_binary+2ee/ae8>
Trace; c011dbaf <do_generic_file_read+67b/688>
Trace; c019deb4 <cprt+374/3b05>
Trace; c011f0e8 <file_read_actor+0/50>
Trace; c012826f <init_private_file+6f/80>
Trace; c012d94e <read_exec+122/134>
Trace; c012dfee <search_binary_handler+3e/114>
Trace; c012d57a <copy_strings+8a/1b0>
Trace; c012e2f3 <do_execve+22f/2e4>
Trace; c012e31b <do_execve+257/2e4>
Trace; c012e233 <do_execve+16f/2e4>
Trace; c0106ba9 <sys_execve+35/60>
Trace; c0107d4d <error_code+2d/40>
Trace; c0107c14 <system_call+34/40>
Code;  c01348d4 <d_lookup+58/d0>
00000000 <_EIP>:
Code;  c01348d4 <d_lookup+58/d0>   <=====
   0:   8b 6d 00          movl   0x0(%ebp),%ebp   <=====
Code;  c01348d7 <d_lookup+5b/d0>
   3:   8b 44 24 18       movl   0x18(%esp,1),%eax
Code;  c01348db <d_lookup+5f/d0>
   7:   39 43 48          cmpl   %eax,0x48(%ebx)
Code;  c01348de <d_lookup+62/d0>
   a:   75 58             jne    64 <_EIP+0x64> c0134938 <d_lookup+bc/d0>
Code;  c01348e0 <d_lookup+64/d0>
   c:   8b 54 24 30       movl   0x30(%esp,1),%edx
Code;  c01348e4 <d_lookup+68/d0>
  10:   39 53 0c          cmpl   %edx,0xc(%ebx)
Code;  c01348e7 <d_lookup+6b/d0>
  13:   75 00             jne    15 <_EIP+0x15> c01348e9 <d_lookup+6d/d0>
Aug 31 23:05:00 ronispc kernel: Unable to handle kernel paging request at 
virtual address caf5b958
Aug 31 23:05:00 ronispc kernel: current->tss.cr3 = 0187f000, Lr3 = 0187f000
Aug 31 23:05:00 ronispc kernel: *pde = 00000000
Aug 31 23:05:00 ronispc kernel: Oops: 0000
Aug 31 23:05:00 ronispc kernel: CPU:    0
Aug 31 23:05:00 ronispc kernel: EIP:    0010:[<c01348d4>]
Aug 31 23:05:00 ronispc kernel: EFLAGS: 00010206
Aug 31 23:05:00 ronispc kernel: eax: 367c491a   ebx: caf5b940   ecx: c12176ec   
edx: c01d5c58
Aug 31 23:05:00 ronispc kernel: esi: 00000000   edi: c2fd32e0   ebp: caf5b958   
esp: c2a1daec
Aug 31 23:05:00 ronispc kernel: ds: 0018   es: 0018   ss: 0018
Aug 31 23:05:00 ronispc kernel: Process runbench (pid: 24995, process nr: 47, 
stackpage=c2a1d000)
Aug 31 23:05:00 ronispc kernel: Stack: c2fd32e0 c12176fd c01d5c58 c12176ec 
367c491a 00000011 00000013 00000000 
Aug 31 23:05:00 ronispc kernel:        c0219780 c012ef62 c2fd32e0 c2a1db44 
00000000 c011dbaf c1217650 c2fd32e0 
Aug 31 23:05:00 ronispc kernel:        00000000 c12176ec 00000013 c103c000 
00000000 00000001 c12176ec 00000011 
Aug 31 23:05:00 ronispc kernel: Call Trace: [<c012ef62>] [<c011dbaf>] 
[<c013c7d7>] [<c01452b7>] [<c01452a8>] [<c012ed21>] [<c012f0e0>] 
Aug 31 23:05:00 ronispc kernel:        [<c012f2e2>] [<c013747e>] [<c011dbaf>] 
[<c019deb4>] [<c011f0e8>] [<c012826f>] [<c012d94e>] [<c012dfee>] 
Aug 31 23:05:00 ronispc kernel:        [<c012d57a>] [<c012e2f3>] [<c012e31b>] 
[<c012e233>] [<c0106ba9>] [<c0107d4d>] [<c0107c14>] 
Aug 31 23:05:00 ronispc kernel: Code: 8b 6d 00 8b 44 24 18 39 43 48 75 58 8b 54 
24 30 39 53 0c 75 
>>EIP; c01348d4 <d_lookup+58/d0>   <=====
Trace; c012ef62 <lookup_dentry+14e/384>
Trace; c011dbaf <do_generic_file_read+67b/688>
Trace; c013c7d7 <ext2_permission+8b/f4>
Trace; c01452b7 <ext2_follow_link+67/88>
Trace; c01452a8 <ext2_follow_link+58/88>
Trace; c012ed21 <permission+29/11c>
Trace; c012f0e0 <lookup_dentry+2cc/384>
Trace; c012f2e2 <open_namei+6a/30c>
Trace; c013747e <load_elf_binary+2ee/ae8>
Trace; c011dbaf <do_generic_file_read+67b/688>
Trace; c019deb4 <cprt+374/3b05>
Trace; c011f0e8 <file_read_actor+0/50>
Trace; c012826f <init_private_file+6f/80>
Trace; c012d94e <read_exec+122/134>
Trace; c012dfee <search_binary_handler+3e/114>
Trace; c012d57a <copy_strings+8a/1b0>
Trace; c012e2f3 <do_execve+22f/2e4>
Trace; c012e31b <do_execve+257/2e4>
Trace; c012e233 <do_execve+16f/2e4>
Trace; c0106ba9 <sys_execve+35/60>
Trace; c0107d4d <error_code+2d/40>
Trace; c0107c14 <system_call+34/40>
Code;  c01348d4 <d_lookup+58/d0>
00000000 <_EIP>:
Code;  c01348d4 <d_lookup+58/d0>   <=====
   0:   8b 6d 00          movl   0x0(%ebp),%ebp   <=====
Code;  c01348d7 <d_lookup+5b/d0>
   3:   8b 44 24 18       movl   0x18(%esp,1),%eax
Code;  c01348db <d_lookup+5f/d0>
   7:   39 43 48          cmpl   %eax,0x48(%ebx)
Code;  c01348de <d_lookup+62/d0>
   a:   75 58             jne    64 <_EIP+0x64> c0134938 <d_lookup+bc/d0>
Code;  c01348e0 <d_lookup+64/d0>
   c:   8b 54 24 30       movl   0x30(%esp,1),%edx
Code;  c01348e4 <d_lookup+68/d0>
  10:   39 53 0c          cmpl   %edx,0xc(%ebx)
Code;  c01348e7 <d_lookup+6b/d0>
  13:   75 00             jne    15 <_EIP+0x15> c01348e9 <d_lookup+6d/d0>
Aug 31 23:05:00 ronispc kernel: Unable to handle kernel paging request at 
virtual address caf5b958
Aug 31 23:05:00 ronispc kernel: current->tss.cr3 = 02e34000, Lr3 = 02e34000
Aug 31 23:05:00 ronispc kernel: *pde = 00000000
Aug 31 23:05:00 ronispc kernel: Oops: 0000
Aug 31 23:05:00 ronispc kernel: CPU:    0
Aug 31 23:05:00 ronispc kernel: EIP:    0010:[<c01348d4>]
Aug 31 23:05:00 ronispc kernel: EFLAGS: 00010206
Aug 31 23:05:00 ronispc kernel: eax: 367c491a   ebx: caf5b940   ecx: c12176ec   
edx: c01d5c58
Aug 31 23:05:00 ronispc kernel: esi: 00000000   edi: c2fd32e0   ebp: caf5b958   
esp: c2a1daec
Aug 31 23:05:00 ronispc kernel: ds: 0018   es: 0018   ss: 0018
Aug 31 23:05:00 ronispc kernel: Process runbench (pid: 24998, process nr: 47, 
stackpage=c2a1d000)
Aug 31 23:05:00 ronispc kernel: Stack: c2fd32e0 c12176fd c01d5c58 c12176ec 
367c491a 00000011 00000013 00000000 
Aug 31 23:05:00 ronispc kernel:        c024ecf0 c012ef62 c2fd32e0 c2a1db44 
00000000 c011dbaf c1217650 c2fd32e0 
Aug 31 23:05:00 ronispc kernel:        00000000 c12176ec 00000013 c103c0c0 
00000000 00000001 c12176ec 00000011 
Aug 31 23:05:00 ronispc kernel: Call Trace: [<c012ef62>] [<c011dbaf>] 
[<c013c7d7>] [<c01452b7>] [<c01452a8>] [<c012ed21>] [<c012f0e0>] 
Aug 31 23:05:00 ronispc kernel:        [<c012f2e2>] [<c013747e>] [<c011dbaf>] 
[<c019deb4>] [<c011f0e8>] [<c012826f>] [<c012d94e>] [<c012dfee>] 
Aug 31 23:05:00 ronispc kernel:        [<c012d57a>] [<c012e2f3>] [<c012e31b>] 
[<c012e233>] [<c0106ba9>] [<c0107d4d>] [<c0107c14>] 
Aug 31 23:05:00 ronispc kernel: Code: 8b 6d 00 8b 44 24 18 39 43 48 75 58 8b 54 
24 30 39 53 0c 75 
>>EIP; c01348d4 <d_lookup+58/d0>   <=====
Trace; c012ef62 <lookup_dentry+14e/384>
Trace; c011dbaf <do_generic_file_read+67b/688>
Trace; c013c7d7 <ext2_permission+8b/f4>
Trace; c01452b7 <ext2_follow_link+67/88>
Trace; c01452a8 <ext2_follow_link+58/88>
Trace; c012ed21 <permission+29/11c>
Trace; c012f0e0 <lookup_dentry+2cc/384>
Trace; c012f2e2 <open_namei+6a/30c>
Trace; c013747e <load_elf_binary+2ee/ae8>
Trace; c011dbaf <do_generic_file_read+67b/688>
Trace; c019deb4 <cprt+374/3b05>
Trace; c011f0e8 <file_read_actor+0/50>
Trace; c012826f <init_private_file+6f/80>
Trace; c012d94e <read_exec+122/134>
Trace; c012dfee <search_binary_handler+3e/114>
Trace; c012d57a <copy_strings+8a/1b0>
Trace; c012e2f3 <do_execve+22f/2e4>
Trace; c012e31b <do_execve+257/2e4>
Trace; c012e233 <do_execve+16f/2e4>
Trace; c0106ba9 <sys_execve+35/60>
Trace; c0107d4d <error_code+2d/40>
Trace; c0107c14 <system_call+34/40>
Code;  c01348d4 <d_lookup+58/d0>
00000000 <_EIP>:
Code;  c01348d4 <d_lookup+58/d0>   <=====
   0:   8b 6d 00          movl   0x0(%ebp),%ebp   <=====
Code;  c01348d7 <d_lookup+5b/d0>
   3:   8b 44 24 18       movl   0x18(%esp,1),%eax
Code;  c01348db <d_lookup+5f/d0>
   7:   39 43 48          cmpl   %eax,0x48(%ebx)
Code;  c01348de <d_lookup+62/d0>
   a:   75 58             jne    64 <_EIP+0x64> c0134938 <d_lookup+bc/d0>
Code;  c01348e0 <d_lookup+64/d0>
   c:   8b 54 24 30       movl   0x30(%esp,1),%edx
Code;  c01348e4 <d_lookup+68/d0>
  10:   39 53 0c          cmpl   %edx,0xc(%ebx)
Code;  c01348e7 <d_lookup+6b/d0>
  13:   75 00             jne    15 <_EIP+0x15> c01348e9 <d_lookup+6d/d0>
Aug 31 23:05:00 ronispc kernel: Unable to handle kernel paging request at 
virtual address caf5b958
Aug 31 23:05:00 ronispc kernel: current->tss.cr3 = 02e34000, Lr3 = 02e34000
Aug 31 23:05:00 ronispc kernel: *pde = 00000000
Aug 31 23:05:00 ronispc kernel: Oops: 0000
Aug 31 23:05:00 ronispc kernel: CPU:    0
Aug 31 23:05:00 ronispc kernel: EIP:    0010:[<c01348d4>]
Aug 31 23:05:00 ronispc kernel: EFLAGS: 00010206
Aug 31 23:05:00 ronispc kernel: eax: 367c491a   ebx: caf5b940   ecx: c12176ec   
edx: c01d5c58
Aug 31 23:05:00 ronispc kernel: esi: 00000000   edi: c2fd32e0   ebp: caf5b958   
esp: c2a1daec
Aug 31 23:05:00 ronispc kernel: ds: 0018   es: 0018   ss: 0018
Aug 31 23:05:00 ronispc kernel: Process runbench (pid: 24999, process nr: 47, 
stackpage=c2a1d000)
Aug 31 23:05:00 ronispc kernel: Stack: c2fd32e0 c12176fd c01d5c58 c12176ec 
367c491a 00000011 00000013 00000000 
Aug 31 23:05:00 ronispc kernel:        c0219780 c012ef62 c2fd32e0 c2a1db44 
00000000 c011dbaf c1217650 c2fd32e0 
Aug 31 23:05:00 ronispc kernel:        00000000 c12176ec 00000013 c103ce80 
00000000 00000001 c12176ec 00000011 
Aug 31 23:05:00 ronispc kernel: Call Trace: [<c012ef62>] [<c011dbaf>] 
[<c013c7d7>] [<c01452b7>] [<c01452a8>] [<c012ed21>] [<c012f0e0>] 
Aug 31 23:05:00 ronispc kernel:        [<c012f2e2>] [<c013747e>] [<c011dbaf>] 
[<c019deb4>] [<c011f0e8>] [<c012826f>] [<c012d94e>] [<c012dfee>] 
Aug 31 23:05:00 ronispc kernel:        [<c012d57a>] [<c012e2f3>] [<c012e31b>] 
[<c012e233>] [<c0106ba9>] [<c0107d4d>] [<c0107c14>] 
Aug 31 23:05:00 ronispc kernel: Code: 8b 6d 00 8b 44 24 18 39 43 48 75 58 8b 54 
24 30 39 53 0c 75 
>>EIP; c01348d4 <d_lookup+58/d0>   <=====
Trace; c012ef62 <lookup_dentry+14e/384>
Trace; c011dbaf <do_generic_file_read+67b/688>
Trace; c013c7d7 <ext2_permission+8b/f4>
Trace; c01452b7 <ext2_follow_link+67/88>
Trace; c01452a8 <ext2_follow_link+58/88>
Trace; c012ed21 <permission+29/11c>
Trace; c012f0e0 <lookup_dentry+2cc/384>
Trace; c012f2e2 <open_namei+6a/30c>
Trace; c013747e <load_elf_binary+2ee/ae8>
Trace; c011dbaf <do_generic_file_read+67b/688>
Trace; c019deb4 <cprt+374/3b05>
Trace; c011f0e8 <file_read_actor+0/50>
Trace; c012826f <init_private_file+6f/80>
Trace; c012d94e <read_exec+122/134>
Trace; c012dfee <search_binary_handler+3e/114>
Trace; c012d57a <copy_strings+8a/1b0>
Trace; c012e2f3 <do_execve+22f/2e4>
Trace; c012e31b <do_execve+257/2e4>
Trace; c012e233 <do_execve+16f/2e4>
Trace; c0106ba9 <sys_execve+35/60>
Trace; c0107d4d <error_code+2d/40>
Trace; c0107c14 <system_call+34/40>
Code;  c01348d4 <d_lookup+58/d0>
00000000 <_EIP>:
Code;  c01348d4 <d_lookup+58/d0>   <=====
   0:   8b 6d 00          movl   0x0(%ebp),%ebp   <=====
Code;  c01348d7 <d_lookup+5b/d0>
   3:   8b 44 24 18       movl   0x18(%esp,1),%eax
Code;  c01348db <d_lookup+5f/d0>
   7:   39 43 48          cmpl   %eax,0x48(%ebx)
Code;  c01348de <d_lookup+62/d0>
   a:   75 58             jne    64 <_EIP+0x64> c0134938 <d_lookup+bc/d0>
Code;  c01348e0 <d_lookup+64/d0>
   c:   8b 54 24 30       movl   0x30(%esp,1),%edx
Code;  c01348e4 <d_lookup+68/d0>
  10:   39 53 0c          cmpl   %edx,0xc(%ebx)
Code;  c01348e7 <d_lookup+6b/d0>
  13:   75 00             jne    15 <_EIP+0x15> c01348e9 <d_lookup+6d/d0>
Aug 31 23:05:00 ronispc kernel: Unable to handle kernel paging request at 
virtual address caf5b958
Aug 31 23:05:00 ronispc kernel: current->tss.cr3 = 0187f000, Lr3 = 0187f000
Aug 31 23:05:00 ronispc kernel: *pde = 00000000
Aug 31 23:05:00 ronispc kernel: Oops: 0000
Aug 31 23:05:00 ronispc kernel: CPU:    0
Aug 31 23:05:00 ronispc kernel: EIP:    0010:[<c01348d4>]
Aug 31 23:05:00 ronispc kernel: EFLAGS: 00010206
Aug 31 23:05:00 ronispc kernel: eax: 367c491a   ebx: caf5b940   ecx: c12176ec   
edx: c01d5c58
Aug 31 23:05:00 ronispc kernel: esi: 00000000   edi: c2fd32e0   ebp: caf5b958   
esp: c2a1daec
Aug 31 23:05:00 ronispc kernel: ds: 0018   es: 0018   ss: 0018
Aug 31 23:05:00 ronispc kernel: Process runbench (pid: 25002, process nr: 47, 
stackpage=c2a1d000)
Aug 31 23:05:00 ronispc kernel: Stack: c2fd32e0 c12176fd c01d5c58 c12176ec 
367c491a 00000011 00000013 00000000 
Aug 31 23:05:00 ronispc kernel:        c024ecf0 c012ef62 c2fd32e0 c2a1db44 
00000000 c011dbaf c1217650 c2fd32e0 
Aug 31 23:05:00 ronispc kernel:        00000000 c12176ec 00000013 c103cbc0 
00000000 00000001 c12176ec 00000011 
Aug 31 23:05:00 ronispc kernel: Call Trace: [<c012ef62>] [<c011dbaf>] 
[<c013c7d7>] [<c01452b7>] [<c01452a8>] [<c012ed21>] [<c012f0e0>] 
Aug 31 23:05:00 ronispc kernel:        [<c012f2e2>] [<c013747e>] [<c011dbaf>] 
[<c019deb4>] [<c011f0e8>] [<c012826f>] [<c012d94e>] [<c012dfee>] 
Aug 31 23:05:00 ronispc kernel:        [<c012d57a>] [<c012e2f3>] [<c012e31b>] 
[<c012e233>] [<c0106ba9>] [<c0107d4d>] [<c0107c14>] 
Aug 31 23:05:00 ronispc kernel: Code: 8b 6d 00 8b 44 24 18 39 43 48 75 58 8b 54 
24 30 39 53 0c 75 
>>EIP; c01348d4 <d_lookup+58/d0>   <=====
Trace; c012ef62 <lookup_dentry+14e/384>
Trace; c011dbaf <do_generic_file_read+67b/688>
Trace; c013c7d7 <ext2_permission+8b/f4>
Trace; c01452b7 <ext2_follow_link+67/88>
Trace; c01452a8 <ext2_follow_link+58/88>
Trace; c012ed21 <permission+29/11c>
Trace; c012f0e0 <lookup_dentry+2cc/384>
Trace; c012f2e2 <open_namei+6a/30c>
Trace; c013747e <load_elf_binary+2ee/ae8>
Trace; c011dbaf <do_generic_file_read+67b/688>
Trace; c019deb4 <cprt+374/3b05>
Trace; c011f0e8 <file_read_actor+0/50>
Trace; c012826f <init_private_file+6f/80>
Trace; c012d94e <read_exec+122/134>
Trace; c012dfee <search_binary_handler+3e/114>
Trace; c012d57a <copy_strings+8a/1b0>
Trace; c012e2f3 <do_execve+22f/2e4>
Trace; c012e31b <do_execve+257/2e4>
Trace; c012e233 <do_execve+16f/2e4>
Trace; c0106ba9 <sys_execve+35/60>
Trace; c0107d4d <error_code+2d/40>
Trace; c0107c14 <system_call+34/40>
Code;  c01348d4 <d_lookup+58/d0>
00000000 <_EIP>:
Code;  c01348d4 <d_lookup+58/d0>   <=====
   0:   8b 6d 00          movl   0x0(%ebp),%ebp   <=====
Code;  c01348d7 <d_lookup+5b/d0>
   3:   8b 44 24 18       movl   0x18(%esp,1),%eax
Code;  c01348db <d_lookup+5f/d0>
   7:   39 43 48          cmpl   %eax,0x48(%ebx)
Code;  c01348de <d_lookup+62/d0>
   a:   75 58             jne    64 <_EIP+0x64> c0134938 <d_lookup+bc/d0>
Code;  c01348e0 <d_lookup+64/d0>
   c:   8b 54 24 30       movl   0x30(%esp,1),%edx
Code;  c01348e4 <d_lookup+68/d0>
  10:   39 53 0c          cmpl   %edx,0xc(%ebx)
Code;  c01348e7 <d_lookup+6b/d0>
  13:   75 00             jne    15 <_EIP+0x15> c01348e9 <d_lookup+6d/d0>
Aug 31 23:05:00 ronispc kernel: Unable to handle kernel paging request at 
virtual address caf5b958
Aug 31 23:05:00 ronispc kernel: current->tss.cr3 = 0187f000, Lr3 = 0187f000
Aug 31 23:05:00 ronispc kernel: *pde = 00000000
Aug 31 23:05:00 ronispc kernel: Oops: 0000
Aug 31 23:05:00 ronispc kernel: CPU:    0
Aug 31 23:05:00 ronispc kernel: EIP:    0010:[<c01348d4>]
Aug 31 23:05:00 ronispc kernel: EFLAGS: 00010206
Aug 31 23:05:00 ronispc kernel: eax: 367c491a   ebx: caf5b940   ecx: c12176ec   
edx: c01d5c58
Aug 31 23:05:00 ronispc kernel: esi: 00000000   edi: c2fd32e0   ebp: caf5b958   
esp: c2a1daec
Aug 31 23:05:00 ronispc kernel: ds: 0018   es: 0018   ss: 0018
Aug 31 23:05:00 ronispc kernel: Process runbench (pid: 25003, process nr: 47, 
stackpage=c2a1d000)
Aug 31 23:05:00 ronispc kernel: Stack: c2fd32e0 c12176fd c01d5c58 c12176ec 
367c491a 00000011 00000013 00000000 
Aug 31 23:05:00 ronispc kernel:        c0219780 c012ef62 c2fd32e0 c2a1db44 
00000000 c011dbaf c1217650 c2fd32e0 
Aug 31 23:05:00 ronispc kernel:        00000000 c12176ec 00000013 c103cec0 
00000000 00000001 c12176ec 00000011 
Aug 31 23:05:00 ronispc kernel: Call Trace: [<c012ef62>] [<c011dbaf>] 
[<c013c7d7>] [<c01452b7>] [<c01452a8>] [<c012ed21>] [<c012f0e0>] 
Aug 31 23:05:00 ronispc kernel:        [<c012f2e2>] [<c013747e>] [<c011dbaf>] 
[<c019deb4>] [<c011f0e8>] [<c012826f>] [<c012d94e>] [<c012dfee>] 
Aug 31 23:05:00 ronispc kernel:        [<c012d57a>] [<c012e2f3>] [<c012e31b>] 
[<c012e233>] [<c0106ba9>] [<c0107d4d>] [<c0107c14>] 
Aug 31 23:05:00 ronispc kernel: Code: 8b 6d 00 8b 44 24 18 39 43 48 75 58 8b 54 
24 30 39 53 0c 75 
>>EIP; c01348d4 <d_lookup+58/d0>   <=====
Trace; c012ef62 <lookup_dentry+14e/384>
Trace; c011dbaf <do_generic_file_read+67b/688>
Trace; c013c7d7 <ext2_permission+8b/f4>
Trace; c01452b7 <ext2_follow_link+67/88>
Trace; c01452a8 <ext2_follow_link+58/88>
Trace; c012ed21 <permission+29/11c>
Trace; c012f0e0 <lookup_dentry+2cc/384>
Trace; c012f2e2 <open_namei+6a/30c>
Trace; c013747e <load_elf_binary+2ee/ae8>
Trace; c011dbaf <do_generic_file_read+67b/688>
Trace; c019deb4 <cprt+374/3b05>
Trace; c011f0e8 <file_read_actor+0/50>
Trace; c012826f <init_private_file+6f/80>
Trace; c012d94e <read_exec+122/134>
Trace; c012dfee <search_binary_handler+3e/114>
Trace; c012d57a <copy_strings+8a/1b0>
Trace; c012e2f3 <do_execve+22f/2e4>
Trace; c012e31b <do_execve+257/2e4>
Trace; c012e233 <do_execve+16f/2e4>
Trace; c0106ba9 <sys_execve+35/60>
Trace; c0107d4d <error_code+2d/40>
Trace; c0107c14 <system_call+34/40>
Code;  c01348d4 <d_lookup+58/d0>
00000000 <_EIP>:
Code;  c01348d4 <d_lookup+58/d0>   <=====
   0:   8b 6d 00          movl   0x0(%ebp),%ebp   <=====
Code;  c01348d7 <d_lookup+5b/d0>
   3:   8b 44 24 18       movl   0x18(%esp,1),%eax
Code;  c01348db <d_lookup+5f/d0>
   7:   39 43 48          cmpl   %eax,0x48(%ebx)
Code;  c01348de <d_lookup+62/d0>
   a:   75 58             jne    64 <_EIP+0x64> c0134938 <d_lookup+bc/d0>
Code;  c01348e0 <d_lookup+64/d0>
   c:   8b 54 24 30       movl   0x30(%esp,1),%edx
Code;  c01348e4 <d_lookup+68/d0>
  10:   39 53 0c          cmpl   %edx,0xc(%ebx)
Code;  c01348e7 <d_lookup+6b/d0>
  13:   75 00             jne    15 <_EIP+0x15> c01348e9 <d_lookup+6d/d0>
Aug 31 23:05:00 ronispc kernel: Unable to handle kernel paging request at 
virtual address caf5b958
Aug 31 23:05:00 ronispc kernel: current->tss.cr3 = 02e34000, Lr3 = 02e34000
Aug 31 23:05:00 ronispc kernel: *pde = 00000000
Aug 31 23:05:00 ronispc kernel: Oops: 0000
Aug 31 23:05:00 ronispc kernel: CPU:    0
Aug 31 23:05:00 ronispc kernel: EIP:    0010:[<c01348d4>]
Aug 31 23:05:00 ronispc kernel: EFLAGS: 00010206
Aug 31 23:05:00 ronispc kernel: eax: 367c491a   ebx: caf5b940   ecx: c12176ec   
edx: c01d5c58
Aug 31 23:05:00 ronispc kernel: esi: 00000000   edi: c2fd32e0   ebp: caf5b958   
esp: c1b03aec
Aug 31 23:05:00 ronispc kernel: ds: 0018   es: 0018   ss: 0018
Aug 31 23:05:00 ronispc kernel: Process runbench (pid: 25006, process nr: 41, 
stackpage=c1b03000)
Aug 31 23:05:00 ronispc kernel: Stack: c2fd32e0 c12176fd c01d5c58 c12176ec 
367c491a 00000011 00000013 00000000 
Aug 31 23:05:00 ronispc kernel:        c024ecf0 c012ef62 c2fd32e0 c1b03b44 
00000000 c011dbaf c1217650 c2fd32e0 
Aug 31 23:05:00 ronispc kernel:        00000000 c12176ec 00000013 c103cb00 
00000000 00000001 c12176ec 00000011 
Aug 31 23:05:00 ronispc kernel: Call Trace: [<c012ef62>] [<c011dbaf>] 
[<c013c7d7>] [<c01452b7>] [<c01452a8>] [<c012ed21>] [<c012f0e0>] 
Aug 31 23:05:00 ronispc kernel:        [<c012f2e2>] [<c013747e>] [<c011dbaf>] 
[<c019deb4>] [<c011f0e8>] [<c012826f>] [<c012d94e>] [<c012dfee>] 
Aug 31 23:05:00 ronispc kernel:        [<c012d57a>] [<c012e2f3>] [<c012e31b>] 
[<c012e233>] [<c0106ba9>] [<c0107d4d>] [<c0107c14>] 
Aug 31 23:05:00 ronispc kernel: Code: 8b 6d 00 8b 44 24 18 39 43 48 75 58 8b 54 
24 30 39 53 0c 75 
>>EIP; c01348d4 <d_lookup+58/d0>   <=====
Trace; c012ef62 <lookup_dentry+14e/384>
Trace; c011dbaf <do_generic_file_read+67b/688>
Trace; c013c7d7 <ext2_permission+8b/f4>
Trace; c01452b7 <ext2_follow_link+67/88>
Trace; c01452a8 <ext2_follow_link+58/88>
Trace; c012ed21 <permission+29/11c>
Trace; c012f0e0 <lookup_dentry+2cc/384>
Trace; c012f2e2 <open_namei+6a/30c>
Trace; c013747e <load_elf_binary+2ee/ae8>
Trace; c011dbaf <do_generic_file_read+67b/688>
Trace; c019deb4 <cprt+374/3b05>
Trace; c011f0e8 <file_read_actor+0/50>
Trace; c012826f <init_private_file+6f/80>
Trace; c012d94e <read_exec+122/134>
Trace; c012dfee <search_binary_handler+3e/114>
Trace; c012d57a <copy_strings+8a/1b0>
Trace; c012e2f3 <do_execve+22f/2e4>
Trace; c012e31b <do_execve+257/2e4>
Trace; c012e233 <do_execve+16f/2e4>
Trace; c0106ba9 <sys_execve+35/60>
Trace; c0107d4d <error_code+2d/40>
Trace; c0107c14 <system_call+34/40>
Code;  c01348d4 <d_lookup+58/d0>
00000000 <_EIP>:
Code;  c01348d4 <d_lookup+58/d0>   <=====
   0:   8b 6d 00          movl   0x0(%ebp),%ebp   <=====
Code;  c01348d7 <d_lookup+5b/d0>
   3:   8b 44 24 18       movl   0x18(%esp,1),%eax
Code;  c01348db <d_lookup+5f/d0>
   7:   39 43 48          cmpl   %eax,0x48(%ebx)
Code;  c01348de <d_lookup+62/d0>
   a:   75 58             jne    64 <_EIP+0x64> c0134938 <d_lookup+bc/d0>
Code;  c01348e0 <d_lookup+64/d0>
   c:   8b 54 24 30       movl   0x30(%esp,1),%edx
Code;  c01348e4 <d_lookup+68/d0>
  10:   39 53 0c          cmpl   %edx,0xc(%ebx)
Code;  c01348e7 <d_lookup+6b/d0>
  13:   75 00             jne    15 <_EIP+0x15> c01348e9 <d_lookup+6d/d0>
Aug 31 23:05:00 ronispc kernel: Unable to handle kernel paging request at 
virtual address caf5b958
Aug 31 23:05:00 ronispc kernel: current->tss.cr3 = 02e34000, Lr3 = 02e34000
Aug 31 23:05:00 ronispc kernel: *pde = 00000000
Aug 31 23:05:00 ronispc kernel: Oops: 0000
Aug 31 23:05:00 ronispc kernel: CPU:    0
Aug 31 23:05:00 ronispc kernel: EIP:    0010:[<c01348d4>]
Aug 31 23:05:00 ronispc kernel: EFLAGS: 00010206
Aug 31 23:05:00 ronispc kernel: eax: 367c491a   ebx: caf5b940   ecx: c12176ec   
edx: c01d5c58
Aug 31 23:05:00 ronispc kernel: esi: 00000000   edi: c2fd32e0   ebp: caf5b958   
esp: c1b03aec
Aug 31 23:05:00 ronispc kernel: ds: 0018   es: 0018   ss: 0018
Aug 31 23:05:00 ronispc kernel: Process runbench (pid: 25007, process nr: 41, 
stackpage=c1b03000)
Aug 31 23:05:00 ronispc kernel: Stack: c2fd32e0 c12176fd c01d5c58 c12176ec 
367c491a 00000011 00000013 00000000 
Aug 31 23:05:00 ronispc kernel:        c0219780 c012ef62 c2fd32e0 c1b03b44 
00000000 c011dbaf c1217650 c2fd32e0 
Aug 31 23:05:00 ronispc kernel:        00000000 c12176ec 00000013 c103cf40 
00000000 00000001 c12176ec 00000011 
Aug 31 23:05:00 ronispc kernel: Call Trace: [<c012ef62>] [<c011dbaf>] 
[<c013c7d7>] [<c01452b7>] [<c01452a8>] [<c012ed21>] [<c012f0e0>] 
Aug 31 23:05:00 ronispc kernel:        [<c012f2e2>] [<c013747e>] [<c011dbaf>] 
[<c019deb4>] [<c011f0e8>] [<c012826f>] [<c012d94e>] [<c012dfee>] 
Aug 31 23:05:00 ronispc kernel:        [<c012d57a>] [<c012e2f3>] [<c012e31b>] 
[<c012e233>] [<c0106ba9>] [<c0107d4d>] [<c0107c14>] 
Aug 31 23:05:00 ronispc kernel: Code: 8b 6d 00 8b 44 24 18 39 43 48 75 58 8b 54 
24 30 39 53 0c 75 
>>EIP; c01348d4 <d_lookup+58/d0>   <=====
Trace; c012ef62 <lookup_dentry+14e/384>
Trace; c011dbaf <do_generic_file_read+67b/688>
Trace; c013c7d7 <ext2_permission+8b/f4>
Trace; c01452b7 <ext2_follow_link+67/88>
Trace; c01452a8 <ext2_follow_link+58/88>
Trace; c012ed21 <permission+29/11c>
Trace; c012f0e0 <lookup_dentry+2cc/384>
Trace; c012f2e2 <open_namei+6a/30c>
Trace; c013747e <load_elf_binary+2ee/ae8>
Trace; c011dbaf <do_generic_file_read+67b/688>
Trace; c019deb4 <cprt+374/3b05>
Trace; c011f0e8 <file_read_actor+0/50>
Trace; c012826f <init_private_file+6f/80>
Trace; c012d94e <read_exec+122/134>
Trace; c012dfee <search_binary_handler+3e/114>
Trace; c012d57a <copy_strings+8a/1b0>
Trace; c012e2f3 <do_execve+22f/2e4>
Trace; c012e31b <do_execve+257/2e4>
Trace; c012e233 <do_execve+16f/2e4>
Trace; c0106ba9 <sys_execve+35/60>
Trace; c0107d4d <error_code+2d/40>
Trace; c0107c14 <system_call+34/40>
Code;  c01348d4 <d_lookup+58/d0>
00000000 <_EIP>:
Code;  c01348d4 <d_lookup+58/d0>   <=====
   0:   8b 6d 00          movl   0x0(%ebp),%ebp   <=====
Code;  c01348d7 <d_lookup+5b/d0>
   3:   8b 44 24 18       movl   0x18(%esp,1),%eax
Code;  c01348db <d_lookup+5f/d0>
   7:   39 43 48          cmpl   %eax,0x48(%ebx)
Code;  c01348de <d_lookup+62/d0>
   a:   75 58             jne    64 <_EIP+0x64> c0134938 <d_lookup+bc/d0>
Code;  c01348e0 <d_lookup+64/d0>
   c:   8b 54 24 30       movl   0x30(%esp,1),%edx
Code;  c01348e4 <d_lookup+68/d0>
  10:   39 53 0c          cmpl   %edx,0xc(%ebx)
Code;  c01348e7 <d_lookup+6b/d0>
  13:   75 00             jne    15 <_EIP+0x15> c01348e9 <d_lookup+6d/d0>
Aug 31 23:05:00 ronispc kernel: Unable to handle kernel paging request at 
virtual address caf5b958
Aug 31 23:05:00 ronispc kernel: current->tss.cr3 = 0187f000, Lr3 = 0187f000
Aug 31 23:05:00 ronispc kernel: *pde = 00000000
Aug 31 23:05:00 ronispc kernel: Oops: 0000
Aug 31 23:05:00 ronispc kernel: CPU:    0
Aug 31 23:05:00 ronispc kernel: EIP:    0010:[<c01348d4>]
Aug 31 23:05:00 ronispc kernel: EFLAGS: 00010206
Aug 31 23:05:00 ronispc kernel: eax: 367c491a   ebx: caf5b940   ecx: c12176ec   
edx: c01d5c58
Aug 31 23:05:00 ronispc kernel: esi: 00000000   edi: c2fd32e0   ebp: caf5b958   
esp: c2a1daec
Aug 31 23:05:00 ronispc kernel: ds: 0018   es: 0018   ss: 0018
Aug 31 23:05:00 ronispc kernel: Process runbench (pid: 25010, process nr: 47, 
stackpage=c2a1d000)
Aug 31 23:05:00 ronispc kernel: Stack: c2fd32e0 c12176fd c01d5c58 c12176ec 
367c491a 00000011 00000013 00000000 
Aug 31 23:05:00 ronispc kernel:        c024ecf0 c012ef62 c2fd32e0 c2a1db44 
00000000 c011dbaf c1217650 c2fd32e0 
Aug 31 23:05:00 ronispc kernel:        00000000 c12176ec 00000013 c103ce40 
00000000 00000001 c12176ec 00000011 
Aug 31 23:05:00 ronispc kernel: Call Trace: [<c012ef62>] [<c011dbaf>] 
[<c013c7d7>] [<c01452b7>] [<c01452a8>] [<c012ed21>] [<c012f0e0>] 
Aug 31 23:05:00 ronispc kernel:        [<c012f2e2>] [<c013747e>] [<c011dbaf>] 
[<c019deb4>] [<c011f0e8>] [<c012826f>] [<c012d94e>] [<c012dfee>] 
Aug 31 23:05:00 ronispc kernel:        [<c012d57a>] [<c012e2f3>] [<c012e31b>] 
[<c012e233>] [<c0106ba9>] [<c0107d4d>] [<c0107c14>] 
Aug 31 23:05:00 ronispc kernel: Code: 8b 6d 00 8b 44 24 18 39 43 48 75 58 8b 54 
24 30 39 53 0c 75 
>>EIP; c01348d4 <d_lookup+58/d0>   <=====
Trace; c012ef62 <lookup_dentry+14e/384>
Trace; c011dbaf <do_generic_file_read+67b/688>
Trace; c013c7d7 <ext2_permission+8b/f4>
Trace; c01452b7 <ext2_follow_link+67/88>
Trace; c01452a8 <ext2_follow_link+58/88>
Trace; c012ed21 <permission+29/11c>
Trace; c012f0e0 <lookup_dentry+2cc/384>
Trace; c012f2e2 <open_namei+6a/30c>
Trace; c013747e <load_elf_binary+2ee/ae8>
Trace; c011dbaf <do_generic_file_read+67b/688>
Trace; c019deb4 <cprt+374/3b05>
Trace; c011f0e8 <file_read_actor+0/50>
Trace; c012826f <init_private_file+6f/80>
Trace; c012d94e <read_exec+122/134>
Trace; c012dfee <search_binary_handler+3e/114>
Trace; c012d57a <copy_strings+8a/1b0>
Trace; c012e2f3 <do_execve+22f/2e4>
Trace; c012e31b <do_execve+257/2e4>
Trace; c012e233 <do_execve+16f/2e4>
Trace; c0106ba9 <sys_execve+35/60>
Trace; c0107d4d <error_code+2d/40>
Trace; c0107c14 <system_call+34/40>
Code;  c01348d4 <d_lookup+58/d0>
00000000 <_EIP>:
Code;  c01348d4 <d_lookup+58/d0>   <=====
   0:   8b 6d 00          movl   0x0(%ebp),%ebp   <=====
Code;  c01348d7 <d_lookup+5b/d0>
   3:   8b 44 24 18       movl   0x18(%esp,1),%eax
Code;  c01348db <d_lookup+5f/d0>
   7:   39 43 48          cmpl   %eax,0x48(%ebx)
Code;  c01348de <d_lookup+62/d0>
   a:   75 58             jne    64 <_EIP+0x64> c0134938 <d_lookup+bc/d0>
Code;  c01348e0 <d_lookup+64/d0>
   c:   8b 54 24 30       movl   0x30(%esp,1),%edx
Code;  c01348e4 <d_lookup+68/d0>
  10:   39 53 0c          cmpl   %edx,0xc(%ebx)
Code;  c01348e7 <d_lookup+6b/d0>
  13:   75 00             jne    15 <_EIP+0x15> c01348e9 <d_lookup+6d/d0>
Aug 31 23:05:00 ronispc kernel: Unable to handle kernel paging request at 
virtual address caf5b958
Aug 31 23:05:00 ronispc kernel: current->tss.cr3 = 0187f000, Lr3 = 0187f000
Aug 31 23:05:00 ronispc kernel: *pde = 00000000
Aug 31 23:05:00 ronispc kernel: Oops: 0000
Aug 31 23:05:00 ronispc kernel: CPU:    0
Aug 31 23:05:00 ronispc kernel: EIP:    0010:[<c01348d4>]
Aug 31 23:05:00 ronispc kernel: EFLAGS: 00010206
Aug 31 23:05:00 ronispc kernel: eax: 367c491a   ebx: caf5b940   ecx: c12176ec   
edx: c01d5c58
Aug 31 23:05:00 ronispc kernel: esi: 00000000   edi: c2fd32e0   ebp: caf5b958   
esp: c2a1daec
Aug 31 23:05:00 ronispc kernel: ds: 0018   es: 0018   ss: 0018
Aug 31 23:05:00 ronispc kernel: Process runbench (pid: 25011, process nr: 47, 
stackpage=c2a1d000)
Aug 31 23:05:00 ronispc kernel: Stack: c2fd32e0 c12176fd c01d5c58 c12176ec 
367c491a 00000011 00000013 00000000 
Aug 31 23:05:00 ronispc kernel:        c0219780 c012ef62 c2fd32e0 c2a1db44 
00000000 c011dbaf c1217650 c2fd32e0 
Aug 31 23:05:00 ronispc kernel:        00000000 c12176ec 00000013 c103cf00 
00000000 00000001 c12176ec 00000011 
Aug 31 23:05:00 ronispc kernel: Call Trace: [<c012ef62>] [<c011dbaf>] 
[<c013c7d7>] [<c01452b7>] [<c01452a8>] [<c012ed21>] [<c012f0e0>] 
Aug 31 23:05:00 ronispc kernel:        [<c012f2e2>] [<c013747e>] [<c011dbaf>] 
[<c019deb4>] [<c011f0e8>] [<c012826f>] [<c012d94e>] [<c012dfee>] 
Aug 31 23:05:00 ronispc kernel:        [<c012d57a>] [<c012e2f3>] [<c012e31b>] 
[<c012e233>] [<c0106ba9>] [<c0107d4d>] [<c0107c14>] 
Aug 31 23:05:01 ronispc kernel: Code: 8b 6d 00 8b 44 24 18 39 43 48 75 58 8b 54 
24 30 39 53 0c 75 
>>EIP; c01348d4 <d_lookup+58/d0>   <=====
Trace; c012ef62 <lookup_dentry+14e/384>
Trace; c011dbaf <do_generic_file_read+67b/688>
Trace; c013c7d7 <ext2_permission+8b/f4>
Trace; c01452b7 <ext2_follow_link+67/88>
Trace; c01452a8 <ext2_follow_link+58/88>
Trace; c012ed21 <permission+29/11c>
Trace; c012f0e0 <lookup_dentry+2cc/384>
Trace; c012f2e2 <open_namei+6a/30c>
Trace; c013747e <load_elf_binary+2ee/ae8>
Trace; c011dbaf <do_generic_file_read+67b/688>
Trace; c019deb4 <cprt+374/3b05>
Trace; c011f0e8 <file_read_actor+0/50>
Trace; c012826f <init_private_file+6f/80>
Trace; c012d94e <read_exec+122/134>
Trace; c012dfee <search_binary_handler+3e/114>
Trace; c012d57a <copy_strings+8a/1b0>
Trace; c012e2f3 <do_execve+22f/2e4>
Trace; c012e31b <do_execve+257/2e4>
Trace; c012e233 <do_execve+16f/2e4>
Trace; c0106ba9 <sys_execve+35/60>
Trace; c0107d4d <error_code+2d/40>
Trace; c0107c14 <system_call+34/40>
Code;  c01348d4 <d_lookup+58/d0>
00000000 <_EIP>:
Code;  c01348d4 <d_lookup+58/d0>   <=====
   0:   8b 6d 00          movl   0x0(%ebp),%ebp   <=====
Code;  c01348d7 <d_lookup+5b/d0>
   3:   8b 44 24 18       movl   0x18(%esp,1),%eax
Code;  c01348db <d_lookup+5f/d0>
   7:   39 43 48          cmpl   %eax,0x48(%ebx)
Code;  c01348de <d_lookup+62/d0>
   a:   75 58             jne    64 <_EIP+0x64> c0134938 <d_lookup+bc/d0>
Code;  c01348e0 <d_lookup+64/d0>
   c:   8b 54 24 30       movl   0x30(%esp,1),%edx
Code;  c01348e4 <d_lookup+68/d0>
  10:   39 53 0c          cmpl   %edx,0xc(%ebx)
Code;  c01348e7 <d_lookup+6b/d0>
  13:   75 00             jne    15 <_EIP+0x15> c01348e9 <d_lookup+6d/d0>
Aug 31 23:05:01 ronispc kernel: current->tss.cr3 = 0187f000, Lr3 = 0187f000
Aug 31 23:05:01 ronispc kernel: *pde = 00000000
Aug 31 23:05:01 ronispc kernel: Oops: 0000
Aug 31 23:05:01 ronispc kernel: CPU:    0
Aug 31 23:05:01 ronispc kernel: EIP:    0010:[<c01348d4>]
Aug 31 23:05:01 ronispc kernel: EFLAGS: 00010206
Aug 31 23:05:01 ronispc kernel: eax: 367c491a   ebx: caf5b940   ecx: c12176ec   
edx: c01d5c58
Aug 31 23:05:01 ronispc kernel: esi: 00000000   edi: c2fd32e0   ebp: caf5b958   
esp: c1b03aec
Aug 31 23:05:01 ronispc kernel: ds: 0018   es: 0018   ss: 0018
Aug 31 23:05:01 ronispc kernel: Process runbench (pid: 25030, process nr: 41, 
stackpage=c1b03000)
Aug 31 23:05:01 ronispc kernel: Stack: c2fd32e0 c12176fd c01d5c58 c12176ec 
367c491a 00000011 00000013 00000000 
Aug 31 23:05:01 ronispc kernel:        c024ecf0 c012ef62 c2fd32e0 c1b03b44 
00000000 c011dbaf c1217650 c2fd32e0 
Aug 31 23:05:01 ronispc kernel:        00000000 c12176ec 00000013 c134a700 
00000000 00000001 c12176ec 00000011 
Aug 31 23:05:01 ronispc kernel: Call Trace: [<c012ef62>] [<c011dbaf>] 
[<c013c7d7>] [<c01452b7>] [<c01452a8>] [<c012ed21>] [<c012f0e0>] 
Aug 31 23:05:01 ronispc kernel:        [<c012f2e2>] [<c013747e>] [<c011dbaf>] 
[<c019deb4>] [<c011f0e8>] [<c012826f>] [<c012d94e>] [<c012dfee>] 
Aug 31 23:05:01 ronispc kernel:        [<c012d57a>] [<c012e2f3>] [<c012e31b>] 
[<c012e233>] [<c0106ba9>] [<c0107d4d>] [<c0107c14>] 
Aug 31 23:05:01 ronispc kernel: Code: 8b 6d 00 8b 44 24 18 39 43 48 75 58 8b 54 
24 30 39 53 0c 75 
>>EIP; c01348d4 <d_lookup+58/d0>   <=====
Trace; c012ef62 <lookup_dentry+14e/384>
Trace; c011dbaf <do_generic_file_read+67b/688>
Trace; c013c7d7 <ext2_permission+8b/f4>
Trace; c01452b7 <ext2_follow_link+67/88>
Trace; c01452a8 <ext2_follow_link+58/88>
Trace; c012ed21 <permission+29/11c>
Trace; c012f0e0 <lookup_dentry+2cc/384>
Trace; c012f2e2 <open_namei+6a/30c>
Trace; c013747e <load_elf_binary+2ee/ae8>
Trace; c011dbaf <do_generic_file_read+67b/688>
Trace; c019deb4 <cprt+374/3b05>
Trace; c011f0e8 <file_read_actor+0/50>
Trace; c012826f <init_private_file+6f/80>
Trace; c012d94e <read_exec+122/134>
Trace; c012dfee <search_binary_handler+3e/114>
Trace; c012d57a <copy_strings+8a/1b0>
Trace; c012e2f3 <do_execve+22f/2e4>
Trace; c012e31b <do_execve+257/2e4>
Trace; c012e233 <do_execve+16f/2e4>
Trace; c0106ba9 <sys_execve+35/60>
Trace; c0107d4d <error_code+2d/40>
Trace; c0107c14 <system_call+34/40>
Code;  c01348d4 <d_lookup+58/d0>
00000000 <_EIP>:
Code;  c01348d4 <d_lookup+58/d0>   <=====
   0:   8b 6d 00          movl   0x0(%ebp),%ebp   <=====
Code;  c01348d7 <d_lookup+5b/d0>
   3:   8b 44 24 18       movl   0x18(%esp,1),%eax
Code;  c01348db <d_lookup+5f/d0>
   7:   39 43 48          cmpl   %eax,0x48(%ebx)
Code;  c01348de <d_lookup+62/d0>
   a:   75 58             jne    64 <_EIP+0x64> c0134938 <d_lookup+bc/d0>
Code;  c01348e0 <d_lookup+64/d0>
   c:   8b 54 24 30       movl   0x30(%esp,1),%edx
Code;  c01348e4 <d_lookup+68/d0>
  10:   39 53 0c          cmpl   %edx,0xc(%ebx)
Code;  c01348e7 <d_lookup+6b/d0>
  13:   75 00             jne    15 <_EIP+0x15> c01348e9 <d_lookup+6d/d0>
Aug 31 23:05:01 ronispc kernel: Unable to handle kernel paging request at 
virtual address caf5b958
Aug 31 23:05:01 ronispc kernel: current->tss.cr3 = 0187f000, Lr3 = 0187f000
Aug 31 23:05:01 ronispc kernel: *pde = 00000000
Aug 31 23:05:01 ronispc kernel: Oops: 0000
Aug 31 23:05:01 ronispc kernel: CPU:    0
Aug 31 23:05:01 ronispc kernel: EIP:    0010:[<c01348d4>]
Aug 31 23:05:01 ronispc kernel: EFLAGS: 00010206
Aug 31 23:05:01 ronispc kernel: eax: 367c491a   ebx: caf5b940   ecx: c12176ec   
edx: c01d5c58
Aug 31 23:05:01 ronispc kernel: esi: 00000000   edi: c2fd32e0   ebp: caf5b958   
esp: c1b03aec
Aug 31 23:05:01 ronispc kernel: ds: 0018   es: 0018   ss: 0018
Aug 31 23:05:01 ronispc kernel: Process runbench (pid: 25031, process nr: 41, 
stackpage=c1b03000)
Aug 31 23:05:01 ronispc kernel: Stack: c2fd32e0 c12176fd c01d5c58 c12176ec 
367c491a 00000011 00000013 00000000 
Aug 31 23:05:01 ronispc kernel:        c0219780 c012ef62 c2fd32e0 c1b03b44 
00000000 c011dbaf c1217650 c2fd32e0 
Aug 31 23:05:01 ronispc kernel:        00000000 c12176ec 00000013 c264db00 
00000000 00000001 c12176ec 00000011 
Aug 31 23:05:01 ronispc kernel: Call Trace: [<c012ef62>] [<c011dbaf>] 
[<c013c7d7>] [<c01452b7>] [<c01452a8>] [<c012ed21>] [<c012f0e0>] 
Aug 31 23:05:01 ronispc kernel:        [<c012f2e2>] [<c013747e>] [<c011dbaf>] 
[<c019deb4>] [<c011f0e8>] [<c012826f>] [<c012d94e>] [<c012dfee>] 
Aug 31 23:05:01 ronispc kernel:        [<c012d57a>] [<c012e2f3>] [<c012e31b>] 
[<c012e233>] [<c0106ba9>] [<c0107d4d>] [<c0107c14>] 
Aug 31 23:05:02 ronispc kernel: Code: 8b 6d 00 8b 44 24 18 39 43 48 75 58 8b 54 
24 30 39 53 0c 75 
>>EIP; c01348d4 <d_lookup+58/d0>   <=====
Trace; c012ef62 <lookup_dentry+14e/384>
Trace; c011dbaf <do_generic_file_read+67b/688>
Trace; c013c7d7 <ext2_permission+8b/f4>
Trace; c01452b7 <ext2_follow_link+67/88>
Trace; c01452a8 <ext2_follow_link+58/88>
Trace; c012ed21 <permission+29/11c>
Trace; c012f0e0 <lookup_dentry+2cc/384>
Trace; c012f2e2 <open_namei+6a/30c>
Trace; c013747e <load_elf_binary+2ee/ae8>
Trace; c011dbaf <do_generic_file_read+67b/688>
Trace; c019deb4 <cprt+374/3b05>
Trace; c011f0e8 <file_read_actor+0/50>
Trace; c012826f <init_private_file+6f/80>
Trace; c012d94e <read_exec+122/134>
Trace; c012dfee <search_binary_handler+3e/114>
Trace; c012d57a <copy_strings+8a/1b0>
Trace; c012e2f3 <do_execve+22f/2e4>
Trace; c012e31b <do_execve+257/2e4>
Trace; c012e233 <do_execve+16f/2e4>
Trace; c0106ba9 <sys_execve+35/60>
Trace; c0107d4d <error_code+2d/40>
Trace; c0107c14 <system_call+34/40>
Code;  c01348d4 <d_lookup+58/d0>
00000000 <_EIP>:
Code;  c01348d4 <d_lookup+58/d0>   <=====
   0:   8b 6d 00          movl   0x0(%ebp),%ebp   <=====
Code;  c01348d7 <d_lookup+5b/d0>
   3:   8b 44 24 18       movl   0x18(%esp,1),%eax
Code;  c01348db <d_lookup+5f/d0>
   7:   39 43 48          cmpl   %eax,0x48(%ebx)
Code;  c01348de <d_lookup+62/d0>
   a:   75 58             jne    64 <_EIP+0x64> c0134938 <d_lookup+bc/d0>
Code;  c01348e0 <d_lookup+64/d0>
   c:   8b 54 24 30       movl   0x30(%esp,1),%edx
Code;  c01348e4 <d_lookup+68/d0>
  10:   39 53 0c          cmpl   %edx,0xc(%ebx)
Code;  c01348e7 <d_lookup+6b/d0>
  13:   75 00             jne    15 <_EIP+0x15> c01348e9 <d_lookup+6d/d0>
Aug 31 23:05:02 ronispc kernel: Unable to handle kernel paging request at 
virtual address caf5b958
Aug 31 23:05:02 ronispc kernel: current->tss.cr3 = 02e34000, Lr3 = 02e34000
Aug 31 23:05:02 ronispc kernel: *pde = 00000000
Aug 31 23:05:02 ronispc kernel: Oops: 0000
Aug 31 23:05:02 ronispc kernel: CPU:    0
Aug 31 23:05:02 ronispc kernel: EIP:    0010:[<c01348d4>]
Aug 31 23:05:02 ronispc kernel: EFLAGS: 00010206
Aug 31 23:05:02 ronispc kernel: eax: 367c491a   ebx: caf5b940   ecx: c12176ec   
edx: c01d5c58
Aug 31 23:05:02 ronispc kernel: esi: 00000000   edi: c2fd32e0   ebp: caf5b958   
esp: c2a1daec
Aug 31 23:05:02 ronispc kernel: ds: 0018   es: 0018   ss: 0018
Aug 31 23:05:02 ronispc kernel: Process runbench (pid: 25034, process nr: 47, 
stackpage=c2a1d000)
Aug 31 23:05:02 ronispc kernel: Stack: c2fd32e0 c12176fd c01d5c58 c12176ec 
367c491a 00000011 00000013 00000000 
Aug 31 23:05:02 ronispc kernel:        c024ecf0 c012ef62 c2fd32e0 c2a1db44 
00000000 c011dbaf c1217650 c2fd32e0 
Aug 31 23:05:02 ronispc kernel:        00000000 c12176ec 00000013 c264d600 
00000000 00000001 c12176ec 00000011 
Aug 31 23:05:02 ronispc kernel: Call Trace: [<c012ef62>] [<c011dbaf>] 
[<c013c7d7>] [<c01452b7>] [<c01452a8>] [<c012ed21>] [<c012f0e0>] 
Aug 31 23:05:02 ronispc kernel:        [<c012f2e2>] [<c013747e>] [<c011dbaf>] 
[<c019deb4>] [<c010984c>] [<c0108f89>] [<c0109a62>] [<c012dfee>] 
Aug 31 23:05:02 ronispc kernel:        [<c012d57a>] [<c012e2f3>] [<c012e31b>] 
[<c012e233>] [<c0106ba9>] [<c0109a79>] [<c0107d4d>] [<c0107c14>] 
Aug 31 23:05:02 ronispc kernel: Code: 8b 6d 00 8b 44 24 18 39 43 48 75 58 8b 54 
24 30 39 53 0c 75 
>>EIP; c01348d4 <d_lookup+58/d0>   <=====
Trace; c012ef62 <lookup_dentry+14e/384>
Trace; c011dbaf <do_generic_file_read+67b/688>
Trace; c013c7d7 <ext2_permission+8b/f4>
Trace; c01452b7 <ext2_follow_link+67/88>
Trace; c01452a8 <ext2_follow_link+58/88>
Trace; c012ed21 <permission+29/11c>
Trace; c012f0e0 <lookup_dentry+2cc/384>
Trace; c012f2e2 <open_namei+6a/30c>
Trace; c013747e <load_elf_binary+2ee/ae8>
Trace; c011dbaf <do_generic_file_read+67b/688>
Trace; c019deb4 <cprt+374/3b05>
Trace; c010984c <handle_IRQ_event+38/68>
Trace; c0108f89 <do_8259A_IRQ+79/c0>
Trace; c0109a62 <do_IRQ+2a/48>
Trace; c012dfee <search_binary_handler+3e/114>
Trace; c012d57a <copy_strings+8a/1b0>
Trace; c012e2f3 <do_execve+22f/2e4>
Trace; c012e31b <do_execve+257/2e4>
Trace; c012e233 <do_execve+16f/2e4>
Trace; c0106ba9 <sys_execve+35/60>
Trace; c0109a79 <do_IRQ+41/48>
Trace; c0107d4d <error_code+2d/40>
Trace; c0107c14 <system_call+34/40>
Code;  c01348d4 <d_lookup+58/d0>
00000000 <_EIP>:
Code;  c01348d4 <d_lookup+58/d0>   <=====
   0:   8b 6d 00          movl   0x0(%ebp),%ebp   <=====
Code;  c01348d7 <d_lookup+5b/d0>
   3:   8b 44 24 18       movl   0x18(%esp,1),%eax
Code;  c01348db <d_lookup+5f/d0>
   7:   39 43 48          cmpl   %eax,0x48(%ebx)
Code;  c01348de <d_lookup+62/d0>
   a:   75 58             jne    64 <_EIP+0x64> c0134938 <d_lookup+bc/d0>
Code;  c01348e0 <d_lookup+64/d0>
   c:   8b 54 24 30       movl   0x30(%esp,1),%edx
Code;  c01348e4 <d_lookup+68/d0>
  10:   39 53 0c          cmpl   %edx,0xc(%ebx)
Code;  c01348e7 <d_lookup+6b/d0>
  13:   75 00             jne    15 <_EIP+0x15> c01348e9 <d_lookup+6d/d0>
Aug 31 23:05:02 ronispc kernel: Unable to handle kernel paging request at 
virtual address caf5b958
Aug 31 23:05:02 ronispc kernel: current->tss.cr3 = 02e34000, Lr3 = 02e34000
Aug 31 23:05:02 ronispc kernel: *pde = 00000000
Aug 31 23:05:02 ronispc kernel: Oops: 0000
Aug 31 23:05:02 ronispc kernel: CPU:    0
Aug 31 23:05:02 ronispc kernel: EIP:    0010:[<c01348d4>]
Aug 31 23:05:02 ronispc kernel: EFLAGS: 00010206
Aug 31 23:05:02 ronispc kernel: eax: 367c491a   ebx: caf5b940   ecx: c12176ec   
edx: c01d5c58
Aug 31 23:05:02 ronispc kernel: esi: 00000000   edi: c2fd32e0   ebp: caf5b958   
esp: c2a1daec
Aug 31 23:05:02 ronispc kernel: ds: 0018   es: 0018   ss: 0018
Aug 31 23:05:02 ronispc kernel: Process runbench (pid: 25035, process nr: 47, 
stackpage=c2a1d000)
Aug 31 23:05:02 ronispc kernel: Stack: c2fd32e0 c12176fd c01d5c58 c12176ec 
367c491a 00000011 00000013 00000000 
Aug 31 23:05:02 ronispc kernel:        c0219780 c012ef62 c2fd32e0 c2a1db44 
00000000 c011dbaf c1217650 c2fd32e0 
Aug 31 23:05:02 ronispc kernel:        00000000 c12176ec 00000013 c264de80 
00000000 00000001 c12176ec 00000011 
Aug 31 23:05:02 ronispc kernel: Call Trace: [<c012ef62>] [<c011dbaf>] 
[<c013c7d7>] [<c01452b7>] [<c01452a8>] [<c012ed21>] [<c012f0e0>] 
Aug 31 23:05:02 ronispc kernel: current->tss.cr3 = 0187f000, Lr3 = 0187f000
Aug 31 23:05:02 ronispc kernel: *pde = 00000000
Aug 31 23:05:02 ronispc kernel: Oops: 0000
Aug 31 23:05:02 ronispc kernel: CPU:    0
Aug 31 23:05:02 ronispc kernel: EIP:    0010:[<c01348d4>]
Aug 31 23:05:02 ronispc kernel: EFLAGS: 00010206
Aug 31 23:05:02 ronispc kernel: eax: 367c491a   ebx: caf5b940   ecx: c12176ec   
edx: c01d5c58
Aug 31 23:05:02 ronispc kernel: esi: 00000000   edi: c2fd32e0   ebp: caf5b958   
esp: c1b03aec
Aug 31 23:05:02 ronispc kernel: ds: 0018   es: 0018   ss: 0018
Aug 31 23:05:02 ronispc kernel: Process runbench (pid: 25119, process nr: 41, 
stackpage=c1b03000)
Aug 31 23:05:02 ronispc kernel: Stack: c2fd32e0 c12176fd c01d5c58 c12176ec 
367c491a 00000011 00000013 00000000 
Aug 31 23:05:02 ronispc kernel:        c0219780 c012ef62 c2fd32e0 c1b03b44 
00000000 c011dbaf c1217650 c2fd32e0 
Aug 31 23:05:02 ronispc kernel:        00000000 c12176ec 00000013 c0b45e20 
00000000 00000001 c12176ec 00000011 
Aug 31 23:05:02 ronispc kernel: Call Trace: [<c012ef62>] [<c011dbaf>] 
[<c013c7d7>] [<c012a7aa>] [<c01452b7>] [<c01452a8>] [<c012ed21>] 
Aug 31 23:05:02 ronispc kernel:        [<c012f0e0>] [<c012f2e2>] [<c013747e>] 
[<c011dbaf>] [<c019deb4>] [<c011f0e8>] [<c012826f>] [<c012d94e>] 
Aug 31 23:05:03 ronispc kernel:        [<c012dfee>] [<c012d57a>] [<c012e2f3>] 
[<c012e31b>] [<c012e233>] [<c0106ba9>] [<c0107d4d>] [<c0107c14>] 
Aug 31 23:05:03 ronispc kernel: Code: 8b 6d 00 8b 44 24 18 39 43 48 75 58 8b 54 
24 30 39 53 0c 75 
>>EIP; c01348d4 <d_lookup+58/d0>   <=====
Trace; c012ef62 <lookup_dentry+14e/384>
Trace; c011dbaf <do_generic_file_read+67b/688>
Trace; c013c7d7 <ext2_permission+8b/f4>
Trace; c01452b7 <ext2_follow_link+67/88>
Trace; c01452a8 <ext2_follow_link+58/88>
Trace; c012ed21 <permission+29/11c>
Trace; c012f0e0 <lookup_dentry+2cc/384>
>>EIP; c01348d4 <d_lookup+58/d0>   <=====
Trace; c012ef62 <lookup_dentry+14e/384>
Trace; c011dbaf <do_generic_file_read+67b/688>
Trace; c013c7d7 <ext2_permission+8b/f4>
Trace; c012a7aa <end_buffer_io_sync+16/34>
Trace; c01452b7 <ext2_follow_link+67/88>
Trace; c01452a8 <ext2_follow_link+58/88>
Trace; c012ed21 <permission+29/11c>
Trace; c012f0e0 <lookup_dentry+2cc/384>
Trace; c012f2e2 <open_namei+6a/30c>
Trace; c013747e <load_elf_binary+2ee/ae8>
Trace; c011dbaf <do_generic_file_read+67b/688>
Trace; c019deb4 <cprt+374/3b05>
Trace; c011f0e8 <file_read_actor+0/50>
Trace; c012826f <init_private_file+6f/80>
Trace; c012d94e <read_exec+122/134>
Trace; c012dfee <search_binary_handler+3e/114>
Trace; c012d57a <copy_strings+8a/1b0>
Trace; c012e2f3 <do_execve+22f/2e4>
Trace; c012e31b <do_execve+257/2e4>
Trace; c012e233 <do_execve+16f/2e4>
Trace; c0106ba9 <sys_execve+35/60>
Trace; c0107d4d <error_code+2d/40>
Trace; c0107c14 <system_call+34/40>
Code;  c01348d4 <d_lookup+58/d0>
00000000 <_EIP>:
Code;  c01348d4 <d_lookup+58/d0>   <=====
   0:   8b 6d 00          movl   0x0(%ebp),%ebp   <=====
Code;  c01348d7 <d_lookup+5b/d0>
   3:   8b 44 24 18       movl   0x18(%esp,1),%eax
Code;  c01348db <d_lookup+5f/d0>
   7:   39 43 48          cmpl   %eax,0x48(%ebx)
Code;  c01348de <d_lookup+62/d0>
   a:   75 58             jne    64 <_EIP+0x64> c0134938 <d_lookup+bc/d0>
Code;  c01348e0 <d_lookup+64/d0>
   c:   8b 54 24 30       movl   0x30(%esp,1),%edx
Code;  c01348e4 <d_lookup+68/d0>
  10:   39 53 0c          cmpl   %edx,0xc(%ebx)
Code;  c01348e7 <d_lookup+6b/d0>
  13:   75 00             jne    15 <_EIP+0x15> c01348e9 <d_lookup+6d/d0>
Aug 31 23:05:03 ronispc kernel: Unable to handle kernel paging request at 
virtual address caf5b958
Aug 31 23:05:03 ronispc kernel: current->tss.cr3 = 02e34000, Lr3 = 02e34000
Aug 31 23:05:03 ronispc kernel: *pde = 00000000
Aug 31 23:05:03 ronispc kernel: Oops: 0000
Aug 31 23:05:03 ronispc kernel: CPU:    0
Aug 31 23:05:03 ronispc kernel: EIP:    0010:[<c01348d4>]
Aug 31 23:05:03 ronispc kernel: EFLAGS: 00010206
Aug 31 23:05:03 ronispc kernel: eax: 367c491a   ebx: caf5b940   ecx: c12176ec   
edx: c01d5c58
Aug 31 23:05:03 ronispc kernel: esi: 00000000   edi: c2fd32e0   ebp: caf5b958   
esp: c2a1daec
Aug 31 23:05:03 ronispc kernel: ds: 0018   es: 0018   ss: 0018
Aug 31 23:05:03 ronispc kernel: Process runbench (pid: 25122, process nr: 47, 
stackpage=c2a1d000)
Aug 31 23:05:03 ronispc kernel: Stack: c2fd32e0 c12176fd c01d5c58 c12176ec 
367c491a 00000011 00000013 00000000 
Aug 31 23:05:03 ronispc kernel:        c024ecf0 c012ef62 c2fd32e0 c2a1db44 
00000000 c011dbaf c1217650 c2fd32e0 
Aug 31 23:05:03 ronispc kernel:        00000000 c12176ec 00000013 c0b45ae0 
00000000 00000001 c12176ec 00000011 
Aug 31 23:05:03 ronispc kernel: Call Trace: [<c012ef62>] [<c011dbaf>] 
[<c013c7d7>] [<c01452b7>] [<c01452a8>] [<c012ed21>] [<c012f0e0>] 
Aug 31 23:05:03 ronispc kernel:        [<c012f2e2>] [<c013747e>] [<c011dbaf>] 
[<c019deb4>] [<c011f0e8>] [<c012826f>] [<c012d94e>] [<c012dfee>] 
Aug 31 23:05:03 ronispc kernel:        [<c012d57a>] [<c012e2f3>] [<c012e31b>] 
[<c012e233>] [<c0106ba9>] [<c0107d4d>] [<c0107c14>] 
Aug 31 23:05:03 ronispc kernel: Code: 8b 6d 00 8b 44 24 18 39 43 48 75 58 8b 54 
24 30 39 53 0c 75 
>>EIP; c01348d4 <d_lookup+58/d0>   <=====
Trace; c012ef62 <lookup_dentry+14e/384>
Trace; c011dbaf <do_generic_file_read+67b/688>
Trace; c013c7d7 <ext2_permission+8b/f4>
Trace; c01452b7 <ext2_follow_link+67/88>
Trace; c01452a8 <ext2_follow_link+58/88>
Trace; c012ed21 <permission+29/11c>
Trace; c012f0e0 <lookup_dentry+2cc/384>
Trace; c012f2e2 <open_namei+6a/30c>
Trace; c013747e <load_elf_binary+2ee/ae8>
Trace; c011dbaf <do_generic_file_read+67b/688>
Trace; c019deb4 <cprt+374/3b05>
Trace; c011f0e8 <file_read_actor+0/50>
Trace; c012826f <init_private_file+6f/80>
Trace; c012d94e <read_exec+122/134>
Trace; c012dfee <search_binary_handler+3e/114>
Trace; c012d57a <copy_strings+8a/1b0>
Trace; c012e2f3 <do_execve+22f/2e4>
Trace; c012e31b <do_execve+257/2e4>
Trace; c012e233 <do_execve+16f/2e4>
Trace; c0106ba9 <sys_execve+35/60>
Trace; c0107d4d <error_code+2d/40>
Trace; c0107c14 <system_call+34/40>
Code;  c01348d4 <d_lookup+58/d0>
00000000 <_EIP>:
Code;  c01348d4 <d_lookup+58/d0>   <=====
   0:   8b 6d 00          movl   0x0(%ebp),%ebp   <=====
Code;  c01348d7 <d_lookup+5b/d0>
   3:   8b 44 24 18       movl   0x18(%esp,1),%eax
Code;  c01348db <d_lookup+5f/d0>
   7:   39 43 48          cmpl   %eax,0x48(%ebx)
Code;  c01348de <d_lookup+62/d0>
   a:   75 58             jne    64 <_EIP+0x64> c0134938 <d_lookup+bc/d0>
Code;  c01348e0 <d_lookup+64/d0>
   c:   8b 54 24 30       movl   0x30(%esp,1),%edx
Code;  c01348e4 <d_lookup+68/d0>
  10:   39 53 0c          cmpl   %edx,0xc(%ebx)
Code;  c01348e7 <d_lookup+6b/d0>
  13:   75 00             jne    15 <_EIP+0x15> c01348e9 <d_lookup+6d/d0>
Aug 31 23:05:03 ronispc kernel: Unable to handle kernel paging request at 
virtual address caf5b958
Aug 31 23:05:03 ronispc kernel: current->tss.cr3 = 02e34000, Lr3 = 02e34000
Aug 31 23:05:03 ronispc kernel: *pde = 00000000
Aug 31 23:05:03 ronispc kernel: Oops: 0000
Aug 31 23:05:03 ronispc kernel: CPU:    0
Aug 31 23:05:03 ronispc kernel: EIP:    0010:[<c01348d4>]
Aug 31 23:05:03 ronispc kernel: EFLAGS: 00010206
Aug 31 23:05:03 ronispc kernel: eax: 367c491a   ebx: caf5b940   ecx: c12176ec   
edx: c01d5c58
Aug 31 23:05:03 ronispc kernel: esi: 00000000   edi: c2fd32e0   ebp: caf5b958   
esp: c2a1daec
Aug 31 23:05:03 ronispc kernel: ds: 0018   es: 0018   ss: 0018
Aug 31 23:05:03 ronispc kernel: Process runbench (pid: 25123, process nr: 47, 
stackpage=c2a1d000)
Aug 31 23:05:03 ronispc kernel: Stack: c2fd32e0 c12176fd c01d5c58 c12176ec 
367c491a 00000011 00000013 00000000 
Aug 31 23:05:03 ronispc kernel:        c0219780 c012ef62 c2fd32e0 c2a1db44 
00000000 c011dbaf c1217650 c2fd32e0 
Aug 31 23:05:03 ronispc kernel:        00000000 c12176ec 00000013 c0b45ce0 
00000000 00000001 c12176ec 00000011 
Aug 31 23:05:03 ronispc kernel: Call Trace: [<c012ef62>] [<c011dbaf>] 
[<c013c7d7>] [<c01452b7>] [<c01452a8>] [<c012ed21>] [<c012f0e0>] 
Aug 31 23:05:03 ronispc kernel:        [<c012f2e2>] [<c013747e>] [<c011dbaf>] 
[<c019deb4>] [<c011f0e8>] [<c012826f>] [<c012d94e>] [<c012dfee>] 
Aug 31 23:05:03 ronispc kernel:        [<c012d57a>] [<c012e2f3>] [<c012e31b>] 
[<c012e233>] [<c0106ba9>] [<c0107d4d>] [<c0107c14>] 
Aug 31 23:05:04 ronispc kernel: Code: 8b 6d 00 8b 44 24 18 39 43 48 75 58 8b 54 
24 30 39 53 0c 75 
>>EIP; c01348d4 <d_lookup+58/d0>   <=====
Trace; c012ef62 <lookup_dentry+14e/384>
Trace; c011dbaf <do_generic_file_read+67b/688>
Trace; c013c7d7 <ext2_permission+8b/f4>
Trace; c01452b7 <ext2_follow_link+67/88>
Trace; c01452a8 <ext2_follow_link+58/88>
Trace; c012ed21 <permission+29/11c>
Trace; c012f0e0 <lookup_dentry+2cc/384>
Trace; c012f2e2 <open_namei+6a/30c>
Trace; c013747e <load_elf_binary+2ee/ae8>
Trace; c011dbaf <do_generic_file_read+67b/688>
Trace; c019deb4 <cprt+374/3b05>
Trace; c011f0e8 <file_read_actor+0/50>
Trace; c012826f <init_private_file+6f/80>
Trace; c012d94e <read_exec+122/134>
Trace; c012dfee <search_binary_handler+3e/114>
Trace; c012d57a <copy_strings+8a/1b0>
Trace; c012e2f3 <do_execve+22f/2e4>
Trace; c012e31b <do_execve+257/2e4>
Trace; c012e233 <do_execve+16f/2e4>
Trace; c0106ba9 <sys_execve+35/60>
Trace; c0107d4d <error_code+2d/40>
Trace; c0107c14 <system_call+34/40>
Code;  c01348d4 <d_lookup+58/d0>
00000000 <_EIP>:
Code;  c01348d4 <d_lookup+58/d0>   <=====
   0:   8b 6d 00          movl   0x0(%ebp),%ebp   <=====
Code;  c01348d7 <d_lookup+5b/d0>
   3:   8b 44 24 18       movl   0x18(%esp,1),%eax
Code;  c01348db <d_lookup+5f/d0>
   7:   39 43 48          cmpl   %eax,0x48(%ebx)
Code;  c01348de <d_lookup+62/d0>
   a:   75 58             jne    64 <_EIP+0x64> c0134938 <d_lookup+bc/d0>
Code;  c01348e0 <d_lookup+64/d0>
   c:   8b 54 24 30       movl   0x30(%esp,1),%edx
Code;  c01348e4 <d_lookup+68/d0>
  10:   39 53 0c          cmpl   %edx,0xc(%ebx)
Code;  c01348e7 <d_lookup+6b/d0>
  13:   75 00             jne    15 <_EIP+0x15> c01348e9 <d_lookup+6d/d0>
Aug 31 23:05:04 ronispc kernel: Unable to handle kernel paging request at 
virtual address caf5b958
Aug 31 23:05:04 ronispc kernel: current->tss.cr3 = 0187f000, Lr3 = 0187f000
Aug 31 23:05:04 ronispc kernel: *pde = 00000000
Aug 31 23:05:04 ronispc kernel: Oops: 0000
Aug 31 23:05:04 ronispc kernel: CPU:    0
Aug 31 23:05:04 ronispc kernel: EIP:    0010:[<c01348d4>]
Aug 31 23:05:04 ronispc kernel: EFLAGS: 00010206
Aug 31 23:05:04 ronispc kernel: eax: 367c491a   ebx: caf5b940   ecx: c12176ec   
edx: c01d5c58
Aug 31 23:05:04 ronispc kernel: esi: 00000000   edi: c2fd32e0   ebp: caf5b958   
esp: c1b03aec
Aug 31 23:05:04 ronispc kernel: ds: 0018   es: 0018   ss: 0018
Aug 31 23:05:04 ronispc kernel: Process runbench (pid: 25126, process nr: 41, 
stackpage=c1b03000)
Aug 31 23:05:04 ronispc kernel: Stack: c2fd32e0 c12176fd c01d5c58 c12176ec 
367c491a 00000011 00000013 00000000 
Aug 31 23:05:04 ronispc kernel:        c024ecf0 c012ef62 c2fd32e0 c1b03b44 
00000000 c011dbaf c1217650 c2fd32e0 
Aug 31 23:05:04 ronispc kernel:        00000000 c12176ec 00000013 c0b45760 
00000000 00000001 c12176ec 00000011 
Aug 31 23:05:04 ronispc kernel: Call Trace: [<c012ef62>] [<c011dbaf>] 
[<c013c7d7>] [<c012a7aa>] [<c01452b7>] [<c01452a8>] [<c012ed21>] 
Aug 31 23:05:04 ronispc kernel:        [<c012f0e0>] [<c012f2e2>] [<c013747e>] 
[<c011dbaf>] [<c019deb4>] [<c011f0e8>] [<c012826f>] [<c012d94e>] 
Aug 31 23:05:04 ronispc kernel:        [<c012dfee>] [<c012d57a>] [<c012e2f3>] 
[<c012e31b>] [<c012e233>] [<c0106ba9>] [<c010f468>] [<c0107d4d>] 
Aug 31 23:05:04 ronispc kernel:        [<c0107c14>] 
Aug 31 23:05:04 ronispc kernel: Code: 8b 6d 00 8b 44 24 18 39 43 48 75 58 8b 54 
24 30 39 53 0c 75 
>>EIP; c01348d4 <d_lookup+58/d0>   <=====
Trace; c012ef62 <lookup_dentry+14e/384>
Trace; c011dbaf <do_generic_file_read+67b/688>
Trace; c013c7d7 <ext2_permission+8b/f4>
Trace; c012a7aa <end_buffer_io_sync+16/34>
Trace; c01452b7 <ext2_follow_link+67/88>
Trace; c01452a8 <ext2_follow_link+58/88>
Trace; c012ed21 <permission+29/11c>
Trace; c012f0e0 <lookup_dentry+2cc/384>
Trace; c012f2e2 <open_namei+6a/30c>
Trace; c013747e <load_elf_binary+2ee/ae8>
Trace; c011dbaf <do_generic_file_read+67b/688>
Trace; c019deb4 <cprt+374/3b05>
Trace; c011f0e8 <file_read_actor+0/50>
Trace; c012826f <init_private_file+6f/80>
Trace; c012d94e <read_exec+122/134>
Trace; c012dfee <search_binary_handler+3e/114>
Trace; c012d57a <copy_strings+8a/1b0>
Trace; c012e2f3 <do_execve+22f/2e4>
Trace; c012e31b <do_execve+257/2e4>
Trace; c012e233 <do_execve+16f/2e4>
Trace; c0106ba9 <sys_execve+35/60>
Trace; c010f468 <sys_sigprocmask+0/160>
Trace; c0107d4d <error_code+2d/40>
Trace; c0107c14 <system_call+34/40>
Code;  c01348d4 <d_lookup+58/d0>
00000000 <_EIP>:
Code;  c01348d4 <d_lookup+58/d0>   <=====
   0:   8b 6d 00          movl   0x0(%ebp),%ebp   <=====
Code;  c01348d7 <d_lookup+5b/d0>
   3:   8b 44 24 18       movl   0x18(%esp,1),%eax
Code;  c01348db <d_lookup+5f/d0>
   7:   39 43 48          cmpl   %eax,0x48(%ebx)
Code;  c01348de <d_lookup+62/d0>
   a:   75 58             jne    64 <_EIP+0x64> c0134938 <d_lookup+bc/d0>
Code;  c01348e0 <d_lookup+64/d0>
   c:   8b 54 24 30       movl   0x30(%esp,1),%edx
Code;  c01348e4 <d_lookup+68/d0>
  10:   39 53 0c          cmpl   %edx,0xc(%ebx)
Code;  c01348e7 <d_lookup+6b/d0>
  13:   75 00             jne    15 <_EIP+0x15> c01348e9 <d_lookup+6d/d0>
Aug 31 23:05:04 ronispc kernel: Unable to handle kernel paging request at 
virtual address caf5b958
Aug 31 23:05:04 ronispc kernel: current->tss.cr3 = 0187f000, Lr3 = 0187f000
Aug 31 23:05:04 ronispc kernel: *pde = 00000000
Aug 31 23:05:04 ronispc kernel: Oops: 0000
Aug 31 23:05:04 ronispc kernel: CPU:    0
Aug 31 23:05:04 ronispc kernel: EIP:    0010:[<c01348d4>]
Aug 31 23:05:04 ronispc kernel: EFLAGS: 00010206
Aug 31 23:05:04 ronispc kernel: eax: 367c491a   ebx: caf5b940   ecx: c12176ec   
edx: c01d5c58
Aug 31 23:05:04 ronispc kernel: esi: 00000000   edi: c2fd32e0   ebp: caf5b958   
esp: c1b03aec
Aug 31 23:05:04 ronispc kernel: ds: 0018   es: 0018   ss: 0018
Aug 31 23:05:04 ronispc kernel: Process runbench (pid: 25127, process nr: 41, 
stackpage=c1b03000)
Aug 31 23:05:04 ronispc kernel: Stack: c2fd32e0 c12176fd c01d5c58 c12176ec 
367c491a 00000011 00000013 00000000 
Aug 31 23:05:04 ronispc kernel:        c0219780 c012ef62 c2fd32e0 c1b03b44 
00000000 c011dbaf c1217650 c2fd32e0 
Aug 31 23:05:04 ronispc kernel:        00000000 c12176ec 00000013 c0b45d20 
00000000 00000001 c12176ec 00000011 
Aug 31 23:05:04 ronispc kernel: Call Trace: [<c012ef62>] [<c011dbaf>] 
[<c013c7d7>] [<c012a7aa>] [<c01452b7>] [<c01452a8>] [<c012ed21>] 
Aug 31 23:05:04 ronispc kernel:        [<c012f0e0>] [<c012f2e2>] [<c013747e>] 
[<c011dbaf>] [<c019deb4>] [<c011f0e8>] [<c012826f>] [<c012d94e>] 
Aug 31 23:05:04 ronispc kernel:        [<c012dfee>] [<c012d57a>] [<c012e2f3>] 
[<c012e31b>] [<c012e233>] [<c0106ba9>] [<c010f468>] [<c0107d4d>] 
Aug 31 23:05:04 ronispc kernel:        [<c0107c14>] 
Aug 31 23:05:04 ronispc kernel: Code: 8b 6d 00 8b 44 24 18 39 43 48 75 58 8b 54 
24 30 39 53 0c 75 
>>EIP; c01348d4 <d_lookup+58/d0>   <=====
Trace; c012ef62 <lookup_dentry+14e/384>
Trace; c011dbaf <do_generic_file_read+67b/688>
Trace; c013c7d7 <ext2_permission+8b/f4>
Trace; c012a7aa <end_buffer_io_sync+16/34>
Trace; c01452b7 <ext2_follow_link+67/88>
Trace; c01452a8 <ext2_follow_link+58/88>
Trace; c012ed21 <permission+29/11c>
Trace; c012f0e0 <lookup_dentry+2cc/384>
Trace; c012f2e2 <open_namei+6a/30c>
Trace; c013747e <load_elf_binary+2ee/ae8>
Trace; c011dbaf <do_generic_file_read+67b/688>
Trace; c019deb4 <cprt+374/3b05>
Trace; c011f0e8 <file_read_actor+0/50>
Trace; c012826f <init_private_file+6f/80>
Trace; c012d94e <read_exec+122/134>
Trace; c012dfee <search_binary_handler+3e/114>
Trace; c012d57a <copy_strings+8a/1b0>
Trace; c012e2f3 <do_execve+22f/2e4>
Trace; c012e31b <do_execve+257/2e4>
Trace; c012e233 <do_execve+16f/2e4>
Trace; c0106ba9 <sys_execve+35/60>
Trace; c010f468 <sys_sigprocmask+0/160>
Trace; c0107d4d <error_code+2d/40>
Trace; c0107c14 <system_call+34/40>
Code;  c01348d4 <d_lookup+58/d0>
00000000 <_EIP>:
Code;  c01348d4 <d_lookup+58/d0>   <=====
   0:   8b 6d 00          movl   0x0(%ebp),%ebp   <=====
Code;  c01348d7 <d_lookup+5b/d0>
   3:   8b 44 24 18       movl   0x18(%esp,1),%eax
Code;  c01348db <d_lookup+5f/d0>
   7:   39 43 48          cmpl   %eax,0x48(%ebx)
Code;  c01348de <d_lookup+62/d0>
   a:   75 58             jne    64 <_EIP+0x64> c0134938 <d_lookup+bc/d0>
Code;  c01348e0 <d_lookup+64/d0>
   c:   8b 54 24 30       movl   0x30(%esp,1),%edx
Code;  c01348e4 <d_lookup+68/d0>
  10:   39 53 0c          cmpl   %edx,0xc(%ebx)
Code;  c01348e7 <d_lookup+6b/d0>
  13:   75 00             jne    15 <_EIP+0x15> c01348e9 <d_lookup+6d/d0>
Aug 31 23:05:04 ronispc kernel: Unable to handle kernel paging request at 
virtual address caf5b958
Aug 31 23:05:04 ronispc kernel: current->tss.cr3 = 02e34000, Lr3 = 02e34000
Aug 31 23:05:04 ronispc kernel: *pde = 00000000
Aug 31 23:05:04 ronispc kernel: Oops: 0000
Aug 31 23:05:04 ronispc kernel: CPU:    0
Aug 31 23:05:04 ronispc kernel: EIP:    0010:[<c01348d4>]
Aug 31 23:05:04 ronispc kernel: EFLAGS: 00010206
Aug 31 23:05:04 ronispc kernel: eax: 367c491a   ebx: caf5b940   ecx: c12176ec   
edx: c01d5c58
Aug 31 23:05:04 ronispc kernel: esi: 00000000   edi: c2fd32e0   ebp: caf5b958   
esp: c2a1daec
Aug 31 23:05:04 ronispc kernel: ds: 0018   es: 0018   ss: 0018
Aug 31 23:05:04 ronispc kernel: Process runbench (pid: 25130, process nr: 47, 
stackpage=c2a1d000)
Aug 31 23:05:05 ronispc kernel: Stack: c2fd32e0 c12176fd c01d5c58 c12176ec 
367c491a 00000011 00000013 00000000 
Aug 31 23:05:05 ronispc kernel:        c024ecf0 c012ef62 c2fd32e0 c2a1db44 
00000000 c011dbaf c1217650 c2fd32e0 
Aug 31 23:05:05 ronispc kernel:        00000000 c12176ec 00000013 c0b45aa0 
00000000 00000001 c12176ec 00000011 
Aug 31 23:05:05 ronispc kernel: Call Trace: [<c012ef62>] [<c011dbaf>] 
[<c013c7d7>] [<c01452b7>] [<c01452a8>] [<c012ed21>] [<c012f0e0>] 
Aug 31 23:05:05 ronispc kernel:        [<c012f2e2>] [<c013747e>] [<c011dbaf>] 
[<c019deb4>] [<c011f0e8>] [<c012826f>] [<c012d94e>] [<c012dfee>] 
Aug 31 23:05:05 ronispc kernel:        [<c012d57a>] [<c012e2f3>] [<c012e31b>] 
[<c012e233>] [<c0106ba9>] [<c0107d4d>] [<c0107c14>] 
Aug 31 23:05:05 ronispc kernel: Code: 8b 6d 00 8b 44 24 18 39 43 48 75 58 8b 54 
24 30 39 53 0c 75 
>>EIP; c01348d4 <d_lookup+58/d0>   <=====
Trace; c012ef62 <lookup_dentry+14e/384>
Trace; c011dbaf <do_generic_file_read+67b/688>
Trace; c013c7d7 <ext2_permission+8b/f4>
Trace; c01452b7 <ext2_follow_link+67/88>
Trace; c01452a8 <ext2_follow_link+58/88>
Trace; c012ed21 <permission+29/11c>
Trace; c012f0e0 <lookup_dentry+2cc/384>
Trace; c012f2e2 <open_namei+6a/30c>
Trace; c013747e <load_elf_binary+2ee/ae8>
Trace; c011dbaf <do_generic_file_read+67b/688>
Trace; c019deb4 <cprt+374/3b05>
Trace; c011f0e8 <file_read_actor+0/50>
Trace; c012826f <init_private_file+6f/80>
Trace; c012d94e <read_exec+122/134>
Trace; c012dfee <search_binary_handler+3e/114>
Trace; c012d57a <copy_strings+8a/1b0>
Trace; c012e2f3 <do_execve+22f/2e4>
Trace; c012e31b <do_execve+257/2e4>
Trace; c012e233 <do_execve+16f/2e4>
Trace; c0106ba9 <sys_execve+35/60>
Trace; c0107d4d <error_code+2d/40>
Trace; c0107c14 <system_call+34/40>
Code;  c01348d4 <d_lookup+58/d0>
00000000 <_EIP>:
Code;  c01348d4 <d_lookup+58/d0>   <=====
   0:   8b 6d 00          movl   0x0(%ebp),%ebp   <=====
Code;  c01348d7 <d_lookup+5b/d0>
   3:   8b 44 24 18       movl   0x18(%esp,1),%eax
Code;  c01348db <d_lookup+5f/d0>
   7:   39 43 48          cmpl   %eax,0x48(%ebx)
Code;  c01348de <d_lookup+62/d0>
   a:   75 58             jne    64 <_EIP+0x64> c0134938 <d_lookup+bc/d0>
Code;  c01348e0 <d_lookup+64/d0>
   c:   8b 54 24 30       movl   0x30(%esp,1),%edx
Code;  c01348e4 <d_lookup+68/d0>
  10:   39 53 0c          cmpl   %edx,0xc(%ebx)
Code;  c01348e7 <d_lookup+6b/d0>
  13:   75 00             jne    15 <_EIP+0x15> c01348e9 <d_lookup+6d/d0>
Aug 31 23:05:05 ronispc kernel: Unable to handle kernel paging request at 
virtual address caf5b958
Aug 31 23:05:05 ronispc kernel: current->tss.cr3 = 0187f000, Lr3 = 0187f000
Aug 31 23:05:05 ronispc kernel: *pde = 00000000
Aug 31 23:05:05 ronispc kernel: Oops: 0000
Aug 31 23:05:05 ronispc kernel: CPU:    0
Aug 31 23:05:05 ronispc kernel: EIP:    0010:[<c01348d4>]
Aug 31 23:05:05 ronispc kernel: EFLAGS: 00010206
Aug 31 23:05:05 ronispc kernel: eax: 367c491a   ebx: caf5b940   ecx: c12176ec   
edx: c01d5c58
Aug 31 23:05:05 ronispc kernel: esi: 00000000   edi: c2fd32e0   ebp: caf5b958   
esp: c1b03aec
Aug 31 23:05:05 ronispc kernel: ds: 0018   es: 0018   ss: 0018
Aug 31 23:05:05 ronispc kernel: Process crond (pid: 25132, process nr: 41, 
stackpage=c1b03000)
Aug 31 23:05:05 ronispc kernel: Stack: c2fd32e0 c12176fd c01d5c58 c12176ec 
367c491a 00000011 00000013 00000000 
Aug 31 23:05:05 ronispc kernel:        c0224f40 c012ef62 c2fd32e0 c1b03b44 
00000000 c011dbaf c1217650 c2fd32e0 
Aug 31 23:05:05 ronispc kernel:        00000000 c12176ec 00000013 c0b45120 
00000000 00000001 c12176ec 00000011 
Aug 31 23:05:05 ronispc kernel: Call Trace: [<c012ef62>] [<c011dbaf>] 
[<c012a7aa>] [<c01452b7>] [<c01452a8>] [<c012ed21>] [<c012f0e0>] 
Aug 31 23:05:05 ronispc kernel:        [<c012f2e2>] [<c013747e>] [<c0135eb0>] 
[<c011dbaf>] [<c019deb4>] [<c011f0e8>] [<c012826f>] [<c012d94e>] 
Aug 31 23:05:05 ronispc kernel:        [<c012dfee>] [<c012d57a>] [<c012e2f3>] 
[<c012e31b>] [<c012e233>] [<c0106ba9>] [<c0107d4d>] [<c0107c14>] 
Aug 31 23:05:05 ronispc kernel: Code: 8b 6d 00 8b 44 24 18 39 43 48 75 58 8b 54 
24 30 39 53 0c 75 
>>EIP; c01348d4 <d_lookup+58/d0>   <=====
Trace; c012ef62 <lookup_dentry+14e/384>
Trace; c011dbaf <do_generic_file_read+67b/688>
Trace; c012a7aa <end_buffer_io_sync+16/34>
Trace; c01452b7 <ext2_follow_link+67/88>
Trace; c01452a8 <ext2_follow_link+58/88>
Trace; c012ed21 <permission+29/11c>
Trace; c012f0e0 <lookup_dentry+2cc/384>
Trace; c012f2e2 <open_namei+6a/30c>
Trace; c013747e <load_elf_binary+2ee/ae8>
Trace; c0135eb0 <update_atime+64/6c>
Trace; c011dbaf <do_generic_file_read+67b/688>
Trace; c019deb4 <cprt+374/3b05>
Trace; c011f0e8 <file_read_actor+0/50>
Trace; c012826f <init_private_file+6f/80>
Trace; c012d94e <read_exec+122/134>
Trace; c012dfee <search_binary_handler+3e/114>
Trace; c012d57a <copy_strings+8a/1b0>
Trace; c012e2f3 <do_execve+22f/2e4>
Trace; c012e31b <do_execve+257/2e4>
Trace; c012e233 <do_execve+16f/2e4>
Trace; c0106ba9 <sys_execve+35/60>
Trace; c0107d4d <error_code+2d/40>
Trace; c0107c14 <system_call+34/40>
Code;  c01348d4 <d_lookup+58/d0>
00000000 <_EIP>:
Code;  c01348d4 <d_lookup+58/d0>   <=====
   0:   8b 6d 00          movl   0x0(%ebp),%ebp   <=====
Code;  c01348d7 <d_lookup+5b/d0>
   3:   8b 44 24 18       movl   0x18(%esp,1),%eax
Code;  c01348db <d_lookup+5f/d0>
   7:   39 43 48          cmpl   %eax,0x48(%ebx)
Code;  c01348de <d_lookup+62/d0>
   a:   75 58             jne    64 <_EIP+0x64> c0134938 <d_lookup+bc/d0>
Code;  c01348e0 <d_lookup+64/d0>
   c:   8b 54 24 30       movl   0x30(%esp,1),%edx
Code;  c01348e4 <d_lookup+68/d0>
  10:   39 53 0c          cmpl   %edx,0xc(%ebx)
Code;  c01348e7 <d_lookup+6b/d0>
  13:   75 00             jne    15 <_EIP+0x15> c01348e9 <d_lookup+6d/d0>
Aug 31 23:05:05 ronispc kernel: Unable to handle kernel paging request at 
virtual address caf5b958
Aug 31 23:05:05 ronispc kernel: current->tss.cr3 = 02891000, Lr3 = 02891000
Aug 31 23:05:05 ronispc kernel: *pde = 00000000
Aug 31 23:05:05 ronispc kernel: Oops: 0000
Aug 31 23:05:05 ronispc kernel: CPU:    0
Aug 31 23:05:05 ronispc kernel: EIP:    0010:[<c01348d4>]
Aug 31 23:05:05 ronispc kernel: EFLAGS: 00010206
Aug 31 23:05:05 ronispc kernel: eax: 367c491a   ebx: caf5b940   ecx: c12176ec   
edx: c01d5c58
Aug 31 23:05:05 ronispc kernel: esi: 00000000   edi: c2fd32e0   ebp: caf5b958   
esp: c1ca9aec
Aug 31 23:05:05 ronispc kernel: ds: 0018   es: 0018   ss: 0018
Aug 31 23:05:05 ronispc kernel: Process crond (pid: 25133, process nr: 61, 
stackpage=c1ca9000)
Aug 31 23:05:05 ronispc kernel: Stack: c2fd32e0 c12176fd c01d5c58 c12176ec 
367c491a 00000011 00000013 00000000 
Aug 31 23:05:05 ronispc kernel:        c0224f40 c012ef62 c2fd32e0 c1ca9b44 
00000000 c011dbaf c1217650 c2fd32e0 
Aug 31 23:05:05 ronispc kernel:        00000000 c12176ec 00000013 c0b45ba0 
00000000 00000001 c12176ec 00000011 
Aug 31 23:05:05 ronispc kernel: Call Trace: [<c012ef62>] [<c011dbaf>] 
[<c01452b7>] [<c01452a8>] [<c012ed21>] [<c012f0e0>] [<c012f2e2>] 
Aug 31 23:05:05 ronispc kernel:        [<c013747e>] [<c0135eb0>] [<c011dbaf>] 
[<c019deb4>] [<c011f0e8>] [<c012826f>] [<c012d94e>] [<c012dfee>] 
Aug 31 23:05:05 ronispc kernel:        [<c012d57a>] [<c012e2f3>] [<c012e31b>] 
[<c012e233>] [<c0108f89>] [<c0106ba9>] [<c0107d4d>] [<c0107c14>] 
Aug 31 23:05:05 ronispc kernel: Code: 8b 6d 00 8b 44 24 18 39 43 48 75 58 8b 54 
24 30 39 53 0c 75 
>>EIP; c01348d4 <d_lookup+58/d0>   <=====
Trace; c012ef62 <lookup_dentry+14e/384>
Trace; c011dbaf <do_generic_file_read+67b/688>
Trace; c01452b7 <ext2_follow_link+67/88>
Trace; c01452a8 <ext2_follow_link+58/88>
Trace; c012ed21 <permission+29/11c>
Trace; c012f0e0 <lookup_dentry+2cc/384>
Trace; c012f2e2 <open_namei+6a/30c>
Trace; c013747e <load_elf_binary+2ee/ae8>
Trace; c0135eb0 <update_atime+64/6c>
Trace; c011dbaf <do_generic_file_read+67b/688>
Trace; c019deb4 <cprt+374/3b05>
Trace; c011f0e8 <file_read_actor+0/50>
Trace; c012826f <init_private_file+6f/80>
Trace; c012d94e <read_exec+122/134>
Trace; c012dfee <search_binary_handler+3e/114>
Trace; c012d57a <copy_strings+8a/1b0>
Trace; c012e2f3 <do_execve+22f/2e4>
Trace; c012e31b <do_execve+257/2e4>
Trace; c012e233 <do_execve+16f/2e4>
Trace; c0108f89 <do_8259A_IRQ+79/c0>
Trace; c0106ba9 <sys_execve+35/60>
Trace; c0107d4d <error_code+2d/40>
Trace; c0107c14 <system_call+34/40>
Code;  c01348d4 <d_lookup+58/d0>
00000000 <_EIP>:
Code;  c01348d4 <d_lookup+58/d0>   <=====
   0:   8b 6d 00          movl   0x0(%ebp),%ebp   <=====
Code;  c01348d7 <d_lookup+5b/d0>
   3:   8b 44 24 18       movl   0x18(%esp,1),%eax
Code;  c01348db <d_lookup+5f/d0>
   7:   39 43 48          cmpl   %eax,0x48(%ebx)
Code;  c01348de <d_lookup+62/d0>
   a:   75 58             jne    64 <_EIP+0x64> c0134938 <d_lookup+bc/d0>
Code;  c01348e0 <d_lookup+64/d0>
   c:   8b 54 24 30       movl   0x30(%esp,1),%edx
Code;  c01348e4 <d_lookup+68/d0>
  10:   39 53 0c          cmpl   %edx,0xc(%ebx)
Code;  c01348e7 <d_lookup+6b/d0>
  13:   75 00             jne    15 <_EIP+0x15> c01348e9 <d_lookup+6d/d0>
Aug 31 23:05:05 ronispc kernel: Unable to handle kernel paging request at 
virtual address caf5b958
Aug 31 23:05:05 ronispc kernel: current->tss.cr3 = 02e34000, Lr3 = 02e34000
Aug 31 23:05:06 ronispc kernel: *pde = 00000000
Aug 31 23:05:06 ronispc kernel: Oops: 0000
Aug 31 23:05:06 ronispc kernel: CPU:    0
Aug 31 23:05:06 ronispc kernel: EIP:    0010:[<c01348d4>]
Aug 31 23:05:06 ronispc kernel: EFLAGS: 00010206
Aug 31 23:05:06 ronispc kernel: eax: 367c491a   ebx: caf5b940   ecx: c12176ec   
edx: c01d5c58
Aug 31 23:05:06 ronispc kernel: esi: 00000000   edi: c2fd32e0   ebp: caf5b958   
esp: c2a1daec
Aug 31 23:05:06 ronispc kernel: ds: 0018   es: 0018   ss: 0018
Aug 31 23:05:06 ronispc kernel: Process runbench (pid: 25131, process nr: 47, 
stackpage=c2a1d000)
Aug 31 23:05:06 ronispc kernel: Stack: c2fd32e0 c12176fd c01d5c58 c12176ec 
367c491a 00000011 00000013 00000000 
Aug 31 23:05:06 ronispc kernel:        c0219780 c012ef62 c2fd32e0 c2a1db44 
00000000 c011dbaf c1217650 c2fd32e0 
Aug 31 23:05:06 ronispc kernel:        00000000 c12176ec 00000013 c0b45be0 
00000000 00000001 c12176ec 00000011 
Aug 31 23:05:06 ronispc kernel: Call Trace: [<c012ef62>] [<c011dbaf>] 
[<c013c7d7>] [<c01452b7>] [<c01452a8>] [<c012ed21>] [<c012f0e0>] 
Aug 31 23:05:06 ronispc kernel:        [<c012f2e2>] [<c013747e>] [<c011dbaf>] 
[<c019deb4>] [<c011f0e8>] [<c012826f>] [<c012d94e>] [<c012dfee>] 
Aug 31 23:05:06 ronispc kernel:        [<c012d57a>] [<c012e2f3>] [<c012e31b>] 
[<c012e233>] [<c0106ba9>] [<c0107d4d>] [<c0107c14>] 
Aug 31 23:05:06 ronispc kernel: Code: 8b 6d 00 8b 44 24 18 39 43 48 75 58 8b 54 
24 30 39 53 0c 75 
>>EIP; c01348d4 <d_lookup+58/d0>   <=====
Trace; c012ef62 <lookup_dentry+14e/384>
Trace; c011dbaf <do_generic_file_read+67b/688>
Trace; c013c7d7 <ext2_permission+8b/f4>
Trace; c01452b7 <ext2_follow_link+67/88>
Trace; c01452a8 <ext2_follow_link+58/88>
Trace; c012ed21 <permission+29/11c>
Trace; c012f0e0 <lookup_dentry+2cc/384>
Trace; c012f2e2 <open_namei+6a/30c>
Trace; c013747e <load_elf_binary+2ee/ae8>
Trace; c011dbaf <do_generic_file_read+67b/688>
Trace; c019deb4 <cprt+374/3b05>
Trace; c011f0e8 <file_read_actor+0/50>
Trace; c012826f <init_private_file+6f/80>
Trace; c012d94e <read_exec+122/134>
Trace; c012dfee <search_binary_handler+3e/114>
Trace; c012d57a <copy_strings+8a/1b0>
Trace; c012e2f3 <do_execve+22f/2e4>
Trace; c012e31b <do_execve+257/2e4>
Trace; c012e233 <do_execve+16f/2e4>
Trace; c0106ba9 <sys_execve+35/60>
Trace; c0107d4d <error_code+2d/40>
Trace; c0107c14 <system_call+34/40>
Code;  c01348d4 <d_lookup+58/d0>
00000000 <_EIP>:
Code;  c01348d4 <d_lookup+58/d0>   <=====
   0:   8b 6d 00          movl   0x0(%ebp),%ebp   <=====
Code;  c01348d7 <d_lookup+5b/d0>
   3:   8b 44 24 18       movl   0x18(%esp,1),%eax
Code;  c01348db <d_lookup+5f/d0>
   7:   39 43 48          cmpl   %eax,0x48(%ebx)
Code;  c01348de <d_lookup+62/d0>
   a:   75 58             jne    64 <_EIP+0x64> c0134938 <d_lookup+bc/d0>
Code;  c01348e0 <d_lookup+64/d0>
   c:   8b 54 24 30       movl   0x30(%esp,1),%edx
Code;  c01348e4 <d_lookup+68/d0>
  10:   39 53 0c          cmpl   %edx,0xc(%ebx)
Code;  c01348e7 <d_lookup+6b/d0>
  13:   75 00             jne    15 <_EIP+0x15> c01348e9 <d_lookup+6d/d0>
Aug 31 23:05:06 ronispc kernel: Unable to handle kernel paging request at 
virtual address caf5b958
Aug 31 23:05:06 ronispc kernel: current->tss.cr3 = 02e34000, Lr3 = 02e34000
Aug 31 23:05:06 ronispc kernel: *pde = 00000000
Aug 31 23:05:06 ronispc kernel: Oops: 0000
Aug 31 23:05:06 ronispc kernel: CPU:    0
Aug 31 23:05:06 ronispc kernel: EIP:    0010:[<c01348d4>]
Aug 31 23:05:06 ronispc kernel: EFLAGS: 00010206
Aug 31 23:05:06 ronispc kernel: eax: 367c491a   ebx: caf5b940   ecx: c12176ec   
edx: c01d5c58
Aug 31 23:05:06 ronispc kernel: esi: 00000000   edi: c2fd32e0   ebp: caf5b958   
esp: c2e99aec
Aug 31 23:05:06 ronispc kernel: ds: 0018   es: 0018   ss: 0018
Aug 31 23:05:06 ronispc kernel: Process runbench (pid: 25136, process nr: 42, 
stackpage=c2e99000)
Aug 31 23:05:06 ronispc kernel: Stack: c2fd32e0 c12176fd c01d5c58 c12176ec 
367c491a 00000011 00000013 00000000 
Aug 31 23:05:06 ronispc kernel:        c024ecf0 c012ef62 c2fd32e0 c2e99b44 
00000000 c011dbaf c1217650 c2fd32e0 
Aug 31 23:05:06 ronispc kernel:        00000000 c12176ec 00000013 c0b45ca0 
00000000 00000001 c12176ec 00000011 
Aug 31 23:05:06 ronispc kernel: Call Trace: [<c012ef62>] [<c011dbaf>] 
[<c013c7d7>] [<c01452b7>] [<c01452a8>] [<c012ed21>] [<c012f0e0>] 
Aug 31 23:05:06 ronispc kernel:        [<c012f2e2>] [<c013747e>] [<c011dbaf>] 
[<c019deb4>] [<c011f0e8>] [<c012826f>] [<c012d94e>] [<c012dfee>] 
Aug 31 23:05:06 ronispc kernel:        [<c012d57a>] [<c012e2f3>] [<c012e31b>] 
[<c012e233>] [<c0106ba9>] [<c0107d4d>] [<c0107c14>] 
Aug 31 23:05:06 ronispc kernel: Code: 8b 6d 00 8b 44 24 18 39 43 48 75 58 8b 54 
24 30 39 53 0c 75 
>>EIP; c01348d4 <d_lookup+58/d0>   <=====
Trace; c012ef62 <lookup_dentry+14e/384>
Trace; c011dbaf <do_generic_file_read+67b/688>
Trace; c013c7d7 <ext2_permission+8b/f4>
Trace; c01452b7 <ext2_follow_link+67/88>
Trace; c01452a8 <ext2_follow_link+58/88>
Trace; c012ed21 <permission+29/11c>
Trace; c012f0e0 <lookup_dentry+2cc/384>
Trace; c012f2e2 <open_namei+6a/30c>
Trace; c013747e <load_elf_binary+2ee/ae8>
Trace; c011dbaf <do_generic_file_read+67b/688>
Trace; c019deb4 <cprt+374/3b05>
Trace; c011f0e8 <file_read_actor+0/50>
Trace; c012826f <init_private_file+6f/80>
Trace; c012d94e <read_exec+122/134>
Trace; c012dfee <search_binary_handler+3e/114>
Trace; c012d57a <copy_strings+8a/1b0>
Trace; c012e2f3 <do_execve+22f/2e4>
Trace; c012e31b <do_execve+257/2e4>
Trace; c012e233 <do_execve+16f/2e4>
Trace; c0106ba9 <sys_execve+35/60>
Trace; c0107d4d <error_code+2d/40>
Trace; c0107c14 <system_call+34/40>
Code;  c01348d4 <d_lookup+58/d0>
00000000 <_EIP>:
Code;  c01348d4 <d_lookup+58/d0>   <=====
   0:   8b 6d 00          movl   0x0(%ebp),%ebp   <=====
Code;  c01348d7 <d_lookup+5b/d0>
   3:   8b 44 24 18       movl   0x18(%esp,1),%eax
Code;  c01348db <d_lookup+5f/d0>
   7:   39 43 48          cmpl   %eax,0x48(%ebx)
Code;  c01348de <d_lookup+62/d0>
   a:   75 58             jne    64 <_EIP+0x64> c0134938 <d_lookup+bc/d0>
Code;  c01348e0 <d_lookup+64/d0>
   c:   8b 54 24 30       movl   0x30(%esp,1),%edx
Code;  c01348e4 <d_lookup+68/d0>
  10:   39 53 0c          cmpl   %edx,0xc(%ebx)
Code;  c01348e7 <d_lookup+6b/d0>
  13:   75 00             jne    15 <_EIP+0x15> c01348e9 <d_lookup+6d/d0>
Aug 31 23:05:06 ronispc kernel: Unable to handle kernel paging request at 
virtual address caf5b958
Aug 31 23:05:06 ronispc kernel: current->tss.cr3 = 02e34000, Lr3 = 02e34000
Aug 31 23:05:07 ronispc kernel: *pde = 00000000
Aug 31 23:05:07 ronispc kernel: Oops: 0000
Aug 31 23:05:07 ronispc kernel: CPU:    0
Aug 31 23:05:07 ronispc kernel: EIP:    0010:[<c01348d4>]
Aug 31 23:05:07 ronispc kernel: EFLAGS: 00010206
Aug 31 23:05:07 ronispc kernel: eax: 367c491a   ebx: caf5b940   ecx: c12176ec   
edx: c01d5c58
Aug 31 23:05:07 ronispc kernel: esi: 00000000   edi: c2fd32e0   ebp: caf5b958   
esp: c2e99aec
Aug 31 23:05:07 ronispc kernel: ds: 0018   es: 0018   ss: 0018
Aug 31 23:05:07 ronispc kernel: Process runbench (pid: 25137, process nr: 42, 
stackpage=c2e99000)
Aug 31 23:05:07 ronispc kernel: Stack: c2fd32e0 c12176fd c01d5c58 c12176ec 
367c491a 00000011 00000013 00000000 
Aug 31 23:05:07 ronispc kernel:        c0219780 c012ef62 c2fd32e0 c2e99b44 
00000000 c011dbaf c1217650 c2fd32e0 
Aug 31 23:05:07 ronispc kernel:        00000000 c12176ec 00000013 c0b45f20 
00000000 00000001 c12176ec 00000011 
Aug 31 23:05:07 ronispc kernel: Call Trace: [<c012ef62>] [<c011dbaf>] 
[<c013c7d7>] [<c01452b7>] [<c01452a8>] [<c012ed21>] [<c012f0e0>] 
Aug 31 23:05:07 ronispc kernel:        [<c012f2e2>] [<c013747e>] [<c011dbaf>] 
[<c019deb4>] [<c011f0e8>] [<c012826f>] [<c012d94e>] [<c012dfee>] 
Aug 31 23:05:07 ronispc kernel:        [<c012d57a>] [<c012e2f3>] [<c012e31b>] 
[<c012e233>] [<c0106ba9>] [<c0107d4d>] [<c0107c14>] 
Aug 31 23:05:07 ronispc kernel: Code: 8b 6d 00 8b 44 24 18 39 43 48 75 58 8b 54 
24 30 39 53 0c 75 
>>EIP; c01348d4 <d_lookup+58/d0>   <=====
Trace; c012ef62 <lookup_dentry+14e/384>
Trace; c011dbaf <do_generic_file_read+67b/688>
Trace; c013c7d7 <ext2_permission+8b/f4>
Trace; c01452b7 <ext2_follow_link+67/88>
Trace; c01452a8 <ext2_follow_link+58/88>
Trace; c012ed21 <permission+29/11c>
Trace; c012f0e0 <lookup_dentry+2cc/384>
Trace; c012f2e2 <open_namei+6a/30c>
Trace; c013747e <load_elf_binary+2ee/ae8>
Trace; c011dbaf <do_generic_file_read+67b/688>
Trace; c019deb4 <cprt+374/3b05>
Trace; c011f0e8 <file_read_actor+0/50>
Trace; c012826f <init_private_file+6f/80>
Trace; c012d94e <read_exec+122/134>
Trace; c012dfee <search_binary_handler+3e/114>
Trace; c012d57a <copy_strings+8a/1b0>
Trace; c012e2f3 <do_execve+22f/2e4>
Trace; c012e31b <do_execve+257/2e4>
Trace; c012e233 <do_execve+16f/2e4>
Trace; c0106ba9 <sys_execve+35/60>
Trace; c0107d4d <error_code+2d/40>
Trace; c0107c14 <system_call+34/40>
Code;  c01348d4 <d_lookup+58/d0>
00000000 <_EIP>:
Code;  c01348d4 <d_lookup+58/d0>   <=====
   0:   8b 6d 00          movl   0x0(%ebp),%ebp   <=====
Code;  c01348d7 <d_lookup+5b/d0>
   3:   8b 44 24 18       movl   0x18(%esp,1),%eax
Code;  c01348db <d_lookup+5f/d0>
   7:   39 43 48          cmpl   %eax,0x48(%ebx)
Code;  c01348de <d_lookup+62/d0>
   a:   75 58             jne    64 <_EIP+0x64> c0134938 <d_lookup+bc/d0>
Code;  c01348e0 <d_lookup+64/d0>
   c:   8b 54 24 30       movl   0x30(%esp,1),%edx
Code;  c01348e4 <d_lookup+68/d0>
  10:   39 53 0c          cmpl   %edx,0xc(%ebx)
Code;  c01348e7 <d_lookup+6b/d0>
  13:   75 00             jne    15 <_EIP+0x15> c01348e9 <d_lookup+6d/d0>
Aug 31 23:05:07 ronispc kernel: Unable to handle kernel paging request at 
virtual address caf5b958
Aug 31 23:05:07 ronispc kernel: current->tss.cr3 = 02891000, Lr3 = 02891000
Aug 31 23:05:07 ronispc kernel: *pde = 00000000
Aug 31 23:05:07 ronispc kernel: Oops: 0000
Aug 31 23:05:07 ronispc kernel: CPU:    0
Aug 31 23:05:07 ronispc kernel: EIP:    0010:[<c01348d4>]
Aug 31 23:05:07 ronispc kernel: EFLAGS: 00010206
Aug 31 23:05:07 ronispc kernel: eax: 367c491a   ebx: caf5b940   ecx: c12176ec   
edx: c01d5c58
Aug 31 23:05:07 ronispc kernel: esi: 00000000   edi: c2fd32e0   ebp: caf5b958   
esp: c2a1daec
Aug 31 23:05:07 ronispc kernel: ds: 0018   es: 0018   ss: 0018
Aug 31 23:05:07 ronispc kernel: Process runbench (pid: 25140, process nr: 47, 
stackpage=c2a1d000)
Aug 31 23:05:07 ronispc kernel: Stack: c2fd32e0 c12176fd c01d5c58 c12176ec 
367c491a 00000011 00000013 00000000 
Aug 31 23:05:07 ronispc kernel:        c024ecf0 c012ef62 c2fd32e0 c2a1db44 
00000000 c011dbaf c1217650 c2fd32e0 
Aug 31 23:05:07 ronispc kernel:        00000000 c12176ec 00000013 c0b45da0 
00000000 00000001 c12176ec 00000011 
Aug 31 23:05:07 ronispc kernel: Call Trace: [<c012ef62>] [<c011dbaf>] 
[<c013c7d7>] [<c01452b7>] [<c01452a8>] [<c012ed21>] [<c012f0e0>] 
Aug 31 23:05:07 ronispc kernel:        [<c012f2e2>] [<c013747e>] [<c011dbaf>] 
[<c019deb4>] [<c011f0e8>] [<c012826f>] [<c012d94e>] [<c012dfee>] 
Aug 31 23:05:07 ronispc kernel:        [<c012d57a>] [<c012e2f3>] [<c012e31b>] 
[<c012e233>] [<c0106ba9>] [<c0107d4d>] [<c0107c14>] 
Aug 31 23:05:07 ronispc kernel: Code: 8b 6d 00 8b 44 24 18 39 43 48 75 58 8b 54 
24 30 39 53 0c 75 
>>EIP; c01348d4 <d_lookup+58/d0>   <=====
Trace; c012ef62 <lookup_dentry+14e/384>
Trace; c011dbaf <do_generic_file_read+67b/688>
Trace; c013c7d7 <ext2_permission+8b/f4>
Trace; c01452b7 <ext2_follow_link+67/88>
Trace; c01452a8 <ext2_follow_link+58/88>
Trace; c012ed21 <permission+29/11c>
Trace; c012f0e0 <lookup_dentry+2cc/384>
Trace; c012f2e2 <open_namei+6a/30c>
Trace; c013747e <load_elf_binary+2ee/ae8>
Trace; c011dbaf <do_generic_file_read+67b/688>
Trace; c019deb4 <cprt+374/3b05>
Trace; c011f0e8 <file_read_actor+0/50>
Trace; c012826f <init_private_file+6f/80>
Trace; c012d94e <read_exec+122/134>
Trace; c012dfee <search_binary_handler+3e/114>
Trace; c012d57a <copy_strings+8a/1b0>
Trace; c012e2f3 <do_execve+22f/2e4>
Trace; c012e31b <do_execve+257/2e4>
Trace; c012e233 <do_execve+16f/2e4>
Trace; c0106ba9 <sys_execve+35/60>
Trace; c0107d4d <error_code+2d/40>
Trace; c0107c14 <system_call+34/40>
Code;  c01348d4 <d_lookup+58/d0>
00000000 <_EIP>:
Code;  c01348d4 <d_lookup+58/d0>   <=====
   0:   8b 6d 00          movl   0x0(%ebp),%ebp   <=====
Code;  c01348d7 <d_lookup+5b/d0>
   3:   8b 44 24 18       movl   0x18(%esp,1),%eax
Code;  c01348db <d_lookup+5f/d0>
   7:   39 43 48          cmpl   %eax,0x48(%ebx)
Code;  c01348de <d_lookup+62/d0>
   a:   75 58             jne    64 <_EIP+0x64> c0134938 <d_lookup+bc/d0>
Code;  c01348e0 <d_lookup+64/d0>
   c:   8b 54 24 30       movl   0x30(%esp,1),%edx
Code;  c01348e4 <d_lookup+68/d0>
  10:   39 53 0c          cmpl   %edx,0xc(%ebx)
Code;  c01348e7 <d_lookup+6b/d0>
  13:   75 00             jne    15 <_EIP+0x15> c01348e9 <d_lookup+6d/d0>
Aug 31 23:05:07 ronispc kernel: Unable to handle kernel paging request at 
virtual address caf5b958
Aug 31 23:05:07 ronispc kernel: current->tss.cr3 = 02891000, Lr3 = 02891000
Aug 31 23:05:07 ronispc kernel: *pde = 00000000
Aug 31 23:05:07 ronispc kernel: Oops: 0000
Aug 31 23:05:07 ronispc kernel: CPU:    0
Aug 31 23:05:07 ronispc kernel: EIP:    0010:[<c01348d4>]
Aug 31 23:05:07 ronispc kernel: EFLAGS: 00010206
Aug 31 23:05:07 ronispc kernel: eax: 367c491a   ebx: caf5b940   ecx: c12176ec   
edx: c01d5c58
Aug 31 23:05:07 ronispc kernel: esi: 00000000   edi: c2fd32e0   ebp: caf5b958   
esp: c2a1daec
Aug 31 23:05:07 ronispc kernel: ds: 0018   es: 0018   ss: 0018
Aug 31 23:05:07 ronispc kernel: Process runbench (pid: 25141, process nr: 47, 
stackpage=c2a1d000)
Aug 31 23:05:07 ronispc kernel: Stack: c2fd32e0 c12176fd c01d5c58 c12176ec 
367c491a 00000011 00000013 00000000 
Aug 31 23:05:07 ronispc kernel:        c0219780 c012ef62 c2fd32e0 c2a1db44 
00000000 c011dbaf c1217650 c2fd32e0 
Aug 31 23:05:07 ronispc kernel:        00000000 c12176ec 00000013 c0b45ee0 
00000000 00000001 c12176ec 00000011 
Aug 31 23:05:07 ronispc kernel: Call Trace: [<c012ef62>] [<c011dbaf>] 
[<c013c7d7>] [<c01452b7>] [<c01452a8>] [<c012ed21>] [<c012f0e0>] 
Aug 31 23:05:07 ronispc kernel:        [<c012f2e2>] [<c013747e>] [<c011dbaf>] 
[<c019deb4>] [<c011f0e8>] [<c012826f>] [<c012d94e>] [<c012dfee>] 
Aug 31 23:05:08 ronispc kernel:        [<c012d57a>] [<c012e2f3>] [<c012e31b>] 
[<c012e233>] [<c0106ba9>] [<c0107d4d>] [<c0107c14>] 
Aug 31 23:05:08 ronispc kernel: Code: 8b 6d 00 8b 44 24 18 39 43 48 75 58 8b 54 
24 30 39 53 0c 75 
>>EIP; c01348d4 <d_lookup+58/d0>   <=====
Trace; c012ef62 <lookup_dentry+14e/384>
Trace; c011dbaf <do_generic_file_read+67b/688>
Trace; c013c7d7 <ext2_permission+8b/f4>
Trace; c01452b7 <ext2_follow_link+67/88>
Trace; c01452a8 <ext2_follow_link+58/88>
Trace; c012ed21 <permission+29/11c>
Trace; c012f0e0 <lookup_dentry+2cc/384>
Trace; c012f2e2 <open_namei+6a/30c>
Trace; c013747e <load_elf_binary+2ee/ae8>
Trace; c011dbaf <do_generic_file_read+67b/688>
Trace; c019deb4 <cprt+374/3b05>
Trace; c011f0e8 <file_read_actor+0/50>
Trace; c012826f <init_private_file+6f/80>
Trace; c012d94e <read_exec+122/134>
Trace; c012dfee <search_binary_handler+3e/114>
Trace; c012d57a <copy_strings+8a/1b0>
Trace; c012e2f3 <do_execve+22f/2e4>
Trace; c012e31b <do_execve+257/2e4>
Trace; c012e233 <do_execve+16f/2e4>
Trace; c0106ba9 <sys_execve+35/60>
Trace; c0107d4d <error_code+2d/40>
Trace; c0107c14 <system_call+34/40>
Code;  c01348d4 <d_lookup+58/d0>
00000000 <_EIP>:
Code;  c01348d4 <d_lookup+58/d0>   <=====
   0:   8b 6d 00          movl   0x0(%ebp),%ebp   <=====
Code;  c01348d7 <d_lookup+5b/d0>
   3:   8b 44 24 18       movl   0x18(%esp,1),%eax
Code;  c01348db <d_lookup+5f/d0>
   7:   39 43 48          cmpl   %eax,0x48(%ebx)
Code;  c01348de <d_lookup+62/d0>
   a:   75 58             jne    64 <_EIP+0x64> c0134938 <d_lookup+bc/d0>
Code;  c01348e0 <d_lookup+64/d0>
   c:   8b 54 24 30       movl   0x30(%esp,1),%edx
Code;  c01348e4 <d_lookup+68/d0>
  10:   39 53 0c          cmpl   %edx,0xc(%ebx)
Code;  c01348e7 <d_lookup+6b/d0>
  13:   75 00             jne    15 <_EIP+0x15> c01348e9 <d_lookup+6d/d0>
Aug 31 23:05:08 ronispc kernel: Unable to handle kernel paging request at 
virtual address caf5b958
Aug 31 23:05:08 ronispc kernel: current->tss.cr3 = 02e34000, Lr3 = 02e34000
Aug 31 23:05:08 ronispc kernel: *pde = 00000000
Aug 31 23:05:08 ronispc kernel: Oops: 0000
Aug 31 23:05:08 ronispc kernel: CPU:    0
Aug 31 23:05:08 ronispc kernel: EIP:    0010:[<c01348d4>]
Aug 31 23:05:08 ronispc kernel: EFLAGS: 00010206
Aug 31 23:05:08 ronispc kernel: eax: 367c491a   ebx: caf5b940   ecx: c12176ec   
edx: c01d5c58
Aug 31 23:05:08 ronispc kernel: esi: 00000000   edi: c2fd32e0   ebp: caf5b958   
esp: c2e99aec
Aug 31 23:05:08 ronispc kernel: ds: 0018   es: 0018   ss: 0018
Aug 31 23:05:08 ronispc kernel: Process runbench (pid: 25144, process nr: 42, 
stackpage=c2e99000)
Aug 31 23:05:08 ronispc kernel: Stack: c2fd32e0 c12176fd c01d5c58 c12176ec 
367c491a 00000011 00000013 00000000 
Aug 31 23:05:08 ronispc kernel:        c024ecf0 c012ef62 c2fd32e0 c2e99b44 
00000000 c011dbaf c1217650 c2fd32e0 
Aug 31 23:05:08 ronispc kernel:        00000000 c12176ec 00000013 c0b45f60 
00000000 00000001 c12176ec 00000011 
Aug 31 23:05:08 ronispc kernel: Call Trace: [<c012ef62>] [<c011dbaf>] 
[<c013c7d7>] [<c01452b7>] [<c01452a8>] [<c012ed21>] [<c012f0e0>] 
Aug 31 23:05:08 ronispc kernel:        [<c012f2e2>] [<c013747e>] [<c011dbaf>] 
[<c019deb4>] [<c011f0e8>] [<c012826f>] [<c012d94e>] [<c012dfee>] 
Aug 31 23:05:08 ronispc kernel:        [<c012d57a>] [<c012e2f3>] [<c012e31b>] 
[<c012e233>] [<c0106ba9>] [<c0107d4d>] [<c0107c14>] 
Aug 31 23:05:08 ronispc kernel: Code: 8b 6d 00 8b 44 24 18 39 43 48 75 58 8b 54 
24 30 39 53 0c 75 
>>EIP; c01348d4 <d_lookup+58/d0>   <=====
Trace; c012ef62 <lookup_dentry+14e/384>
Trace; c011dbaf <do_generic_file_read+67b/688>
Trace; c013c7d7 <ext2_permission+8b/f4>
Trace; c01452b7 <ext2_follow_link+67/88>
Trace; c01452a8 <ext2_follow_link+58/88>
Trace; c012ed21 <permission+29/11c>
Trace; c012f0e0 <lookup_dentry+2cc/384>
Trace; c012f2e2 <open_namei+6a/30c>
Trace; c013747e <load_elf_binary+2ee/ae8>
Trace; c011dbaf <do_generic_file_read+67b/688>
Trace; c019deb4 <cprt+374/3b05>
Trace; c011f0e8 <file_read_actor+0/50>
Trace; c012826f <init_private_file+6f/80>
Trace; c012d94e <read_exec+122/134>
Trace; c012dfee <search_binary_handler+3e/114>
Trace; c012d57a <copy_strings+8a/1b0>
Trace; c012e2f3 <do_execve+22f/2e4>
Trace; c012e31b <do_execve+257/2e4>
Trace; c012e233 <do_execve+16f/2e4>
Trace; c0106ba9 <sys_execve+35/60>
Trace; c0107d4d <error_code+2d/40>
Trace; c0107c14 <system_call+34/40>
Code;  c01348d4 <d_lookup+58/d0>
00000000 <_EIP>:
Code;  c01348d4 <d_lookup+58/d0>   <=====
   0:   8b 6d 00          movl   0x0(%ebp),%ebp   <=====
Code;  c01348d7 <d_lookup+5b/d0>
   3:   8b 44 24 18       movl   0x18(%esp,1),%eax
Code;  c01348db <d_lookup+5f/d0>
   7:   39 43 48          cmpl   %eax,0x48(%ebx)
Code;  c01348de <d_lookup+62/d0>
   a:   75 58             jne    64 <_EIP+0x64> c0134938 <d_lookup+bc/d0>
Code;  c01348e0 <d_lookup+64/d0>
   c:   8b 54 24 30       movl   0x30(%esp,1),%edx
Code;  c01348e4 <d_lookup+68/d0>
  10:   39 53 0c          cmpl   %edx,0xc(%ebx)
Code;  c01348e7 <d_lookup+6b/d0>
  13:   75 00             jne    15 <_EIP+0x15> c01348e9 <d_lookup+6d/d0>
Aug 31 23:05:08 ronispc kernel: Unable to handle kernel paging request at 
virtual address caf5b958
Aug 31 23:05:08 ronispc kernel: current->tss.cr3 = 02e34000, Lr3 = 02e34000
Aug 31 23:05:08 ronispc kernel: *pde = 00000000
Aug 31 23:05:08 ronispc kernel: Oops: 0000
Aug 31 23:05:08 ronispc kernel: CPU:    0
Aug 31 23:05:08 ronispc kernel: EIP:    0010:[<c01348d4>]
Aug 31 23:05:08 ronispc kernel: EFLAGS: 00010206
Aug 31 23:05:08 ronispc kernel: eax: 367c491a   ebx: caf5b940   ecx: c12176ec   
edx: c01d5c58
Aug 31 23:05:08 ronispc kernel: esi: 00000000   edi: c2fd32e0   ebp: caf5b958   
esp: c2e99aec
Aug 31 23:05:08 ronispc kernel: ds: 0018   es: 0018   ss: 0018
Aug 31 23:05:08 ronispc kernel: Process runbench (pid: 25145, process nr: 42, 
stackpage=c2e99000)
Aug 31 23:05:08 ronispc kernel: Stack: c2fd32e0 c12176fd c01d5c58 c12176ec 
367c491a 00000011 00000013 00000000 
Aug 31 23:05:08 ronispc kernel:        c0219780 c012ef62 c2fd32e0 c2e99b44 
00000000 c011dbaf c1217650 c2fd32e0 
Aug 31 23:05:08 ronispc kernel:        00000000 c12176ec 00000013 c0b45fa0 
00000000 00000001 c12176ec 00000011 
Aug 31 23:05:08 ronispc kernel: Call Trace: [<c012ef62>] [<c011dbaf>] 
[<c013c7d7>] [<c01452b7>] [<c01452a8>] [<c012ed21>] [<c012f0e0>] 
Aug 31 23:05:08 ronispc kernel:        [<c012f2e2>] [<c013747e>] [<c011dbaf>] 
[<c019deb4>] [<c011f0e8>] [<c012826f>] [<c012d94e>] [<c012dfee>] 
Aug 31 23:05:08 ronispc kernel:        [<c012d57a>] [<c012e2f3>] [<c012e31b>] 
[<c012e233>] [<c0106ba9>] [<c0107d4d>] [<c0107c14>] 
Aug 31 23:05:09 ronispc kernel: Code: 8b 6d 00 8b 44 24 18 39 43 48 75 58 8b 54 
24 30 39 53 0c 75 
>>EIP; c01348d4 <d_lookup+58/d0>   <=====
Trace; c012ef62 <lookup_dentry+14e/384>
Trace; c011dbaf <do_generic_file_read+67b/688>
Trace; c013c7d7 <ext2_permission+8b/f4>
Trace; c01452b7 <ext2_follow_link+67/88>
Trace; c01452a8 <ext2_follow_link+58/88>
Trace; c012ed21 <permission+29/11c>
Trace; c012f0e0 <lookup_dentry+2cc/384>
Trace; c012f2e2 <open_namei+6a/30c>
Trace; c013747e <load_elf_binary+2ee/ae8>
Trace; c011dbaf <do_generic_file_read+67b/688>
Trace; c019deb4 <cprt+374/3b05>
Trace; c011f0e8 <file_read_actor+0/50>
Trace; c012826f <init_private_file+6f/80>
Trace; c012d94e <read_exec+122/134>
Trace; c012dfee <search_binary_handler+3e/114>
Trace; c012d57a <copy_strings+8a/1b0>
Trace; c012e2f3 <do_execve+22f/2e4>
Trace; c012e31b <do_execve+257/2e4>
Trace; c012e233 <do_execve+16f/2e4>
Trace; c0106ba9 <sys_execve+35/60>
Trace; c0107d4d <error_code+2d/40>
Trace; c0107c14 <system_call+34/40>
Code;  c01348d4 <d_lookup+58/d0>
00000000 <_EIP>:
Code;  c01348d4 <d_lookup+58/d0>   <=====
   0:   8b 6d 00          movl   0x0(%ebp),%ebp   <=====
Code;  c01348d7 <d_lookup+5b/d0>
   3:   8b 44 24 18       movl   0x18(%esp,1),%eax
Code;  c01348db <d_lookup+5f/d0>
   7:   39 43 48          cmpl   %eax,0x48(%ebx)
Code;  c01348de <d_lookup+62/d0>
   a:   75 58             jne    64 <_EIP+0x64> c0134938 <d_lookup+bc/d0>
Code;  c01348e0 <d_lookup+64/d0>
   c:   8b 54 24 30       movl   0x30(%esp,1),%edx
Code;  c01348e4 <d_lookup+68/d0>
  10:   39 53 0c          cmpl   %edx,0xc(%ebx)
Code;  c01348e7 <d_lookup+6b/d0>
  13:   75 00             jne    15 <_EIP+0x15> c01348e9 <d_lookup+6d/d0>
2 warnings issued.  Results may not be reliable.
------------- End Forwarded Message -------------
-
To unsubscribe from this list: send the line "unsubscribe linux-kernel" in
the body of a message to majordomo@vger.rutgers.edu
Please read the FAQ at 
http://www.tux.org/lkml/